
Hand_Module.elf:     file format elf32-avr

Sections:
Idx Name          Size      VMA       LMA       File off  Algn
  0 .text         00000d74  00000000  00000000  00000074  2**1
                  CONTENTS, ALLOC, LOAD, READONLY, CODE
  1 .data         0000005a  00800060  00000d74  00000de8  2**0
                  CONTENTS, ALLOC, LOAD, DATA
  2 .comment      00000030  00000000  00000000  00000e42  2**0
                  CONTENTS, READONLY
  3 .note.gnu.avr.deviceinfo 0000003c  00000000  00000000  00000e74  2**2
                  CONTENTS, READONLY
  4 .debug_aranges 00000180  00000000  00000000  00000eb0  2**0
                  CONTENTS, READONLY, DEBUGGING
  5 .debug_info   00002304  00000000  00000000  00001030  2**0
                  CONTENTS, READONLY, DEBUGGING
  6 .debug_abbrev 00000c01  00000000  00000000  00003334  2**0
                  CONTENTS, READONLY, DEBUGGING
  7 .debug_line   00000f7f  00000000  00000000  00003f35  2**0
                  CONTENTS, READONLY, DEBUGGING
  8 .debug_frame  0000030c  00000000  00000000  00004eb4  2**2
                  CONTENTS, READONLY, DEBUGGING
  9 .debug_str    00000d0d  00000000  00000000  000051c0  2**0
                  CONTENTS, READONLY, DEBUGGING
 10 .debug_loc    000014b9  00000000  00000000  00005ecd  2**0
                  CONTENTS, READONLY, DEBUGGING
 11 .debug_ranges 00000110  00000000  00000000  00007386  2**0
                  CONTENTS, READONLY, DEBUGGING

Disassembly of section .text:

00000000 <__vectors>:
   0:	0c 94 2a 00 	jmp	0x54	; 0x54 <__ctors_end>
   4:	0c 94 3f 00 	jmp	0x7e	; 0x7e <__bad_interrupt>
   8:	0c 94 3f 00 	jmp	0x7e	; 0x7e <__bad_interrupt>
   c:	0c 94 3f 00 	jmp	0x7e	; 0x7e <__bad_interrupt>
  10:	0c 94 3f 00 	jmp	0x7e	; 0x7e <__bad_interrupt>
  14:	0c 94 3f 00 	jmp	0x7e	; 0x7e <__bad_interrupt>
  18:	0c 94 3f 00 	jmp	0x7e	; 0x7e <__bad_interrupt>
  1c:	0c 94 3f 00 	jmp	0x7e	; 0x7e <__bad_interrupt>
  20:	0c 94 3f 00 	jmp	0x7e	; 0x7e <__bad_interrupt>
  24:	0c 94 3f 00 	jmp	0x7e	; 0x7e <__bad_interrupt>
  28:	0c 94 3f 00 	jmp	0x7e	; 0x7e <__bad_interrupt>
  2c:	0c 94 3f 00 	jmp	0x7e	; 0x7e <__bad_interrupt>
  30:	0c 94 3f 00 	jmp	0x7e	; 0x7e <__bad_interrupt>
  34:	0c 94 3f 00 	jmp	0x7e	; 0x7e <__bad_interrupt>
  38:	0c 94 3f 00 	jmp	0x7e	; 0x7e <__bad_interrupt>
  3c:	0c 94 3f 00 	jmp	0x7e	; 0x7e <__bad_interrupt>
  40:	0c 94 3f 00 	jmp	0x7e	; 0x7e <__bad_interrupt>
  44:	0c 94 3f 00 	jmp	0x7e	; 0x7e <__bad_interrupt>
  48:	0c 94 3f 00 	jmp	0x7e	; 0x7e <__bad_interrupt>
  4c:	0c 94 3f 00 	jmp	0x7e	; 0x7e <__bad_interrupt>
  50:	0c 94 3f 00 	jmp	0x7e	; 0x7e <__bad_interrupt>

00000054 <__ctors_end>:
  54:	11 24       	eor	r1, r1
  56:	1f be       	out	0x3f, r1	; 63
  58:	cf e5       	ldi	r28, 0x5F	; 95
  5a:	d8 e0       	ldi	r29, 0x08	; 8
  5c:	de bf       	out	0x3e, r29	; 62
  5e:	cd bf       	out	0x3d, r28	; 61

00000060 <__do_copy_data>:
  60:	10 e0       	ldi	r17, 0x00	; 0
  62:	a0 e6       	ldi	r26, 0x60	; 96
  64:	b0 e0       	ldi	r27, 0x00	; 0
  66:	e4 e7       	ldi	r30, 0x74	; 116
  68:	fd e0       	ldi	r31, 0x0D	; 13
  6a:	02 c0       	rjmp	.+4      	; 0x70 <__do_copy_data+0x10>
  6c:	05 90       	lpm	r0, Z+
  6e:	0d 92       	st	X+, r0
  70:	aa 3b       	cpi	r26, 0xBA	; 186
  72:	b1 07       	cpc	r27, r17
  74:	d9 f7       	brne	.-10     	; 0x6c <__do_copy_data+0xc>
  76:	0e 94 d9 01 	call	0x3b2	; 0x3b2 <main>
  7a:	0c 94 b8 06 	jmp	0xd70	; 0xd70 <_exit>

0000007e <__bad_interrupt>:
  7e:	0c 94 00 00 	jmp	0	; 0x0 <__vectors>

00000082 <HLCD_vidSendCommend>:
  82:	cf 93       	push	r28
  84:	c8 2f       	mov	r28, r24
  86:	60 e0       	ldi	r22, 0x00	; 0
  88:	89 e0       	ldi	r24, 0x09	; 9
  8a:	0e 94 f0 02 	call	0x5e0	; 0x5e0 <MDIO_vidWriteChannel>
  8e:	81 e0       	ldi	r24, 0x01	; 1
  90:	0e 94 72 03 	call	0x6e4	; 0x6e4 <MDIO_u8ReadPort>
  94:	8f 70       	andi	r24, 0x0F	; 15
  96:	9c 2f       	mov	r25, r28
  98:	90 7f       	andi	r25, 0xF0	; 240
  9a:	68 2f       	mov	r22, r24
  9c:	69 2b       	or	r22, r25
  9e:	81 e0       	ldi	r24, 0x01	; 1
  a0:	0e 94 84 03 	call	0x708	; 0x708 <MDIO_vidWritePort>
  a4:	60 e0       	ldi	r22, 0x00	; 0
  a6:	8b e0       	ldi	r24, 0x0B	; 11
  a8:	0e 94 f0 02 	call	0x5e0	; 0x5e0 <MDIO_vidWriteChannel>
  ac:	8f e8       	ldi	r24, 0x8F	; 143
  ae:	91 e0       	ldi	r25, 0x01	; 1
  b0:	01 97       	sbiw	r24, 0x01	; 1
  b2:	f1 f7       	brne	.-4      	; 0xb0 <HLCD_vidSendCommend+0x2e>
  b4:	00 c0       	rjmp	.+0      	; 0xb6 <HLCD_vidSendCommend+0x34>
  b6:	00 00       	nop
  b8:	61 e0       	ldi	r22, 0x01	; 1
  ba:	8b e0       	ldi	r24, 0x0B	; 11
  bc:	0e 94 f0 02 	call	0x5e0	; 0x5e0 <MDIO_vidWriteChannel>
  c0:	8f e1       	ldi	r24, 0x1F	; 31
  c2:	9e e4       	ldi	r25, 0x4E	; 78
  c4:	01 97       	sbiw	r24, 0x01	; 1
  c6:	f1 f7       	brne	.-4      	; 0xc4 <HLCD_vidSendCommend+0x42>
  c8:	00 c0       	rjmp	.+0      	; 0xca <HLCD_vidSendCommend+0x48>
  ca:	00 00       	nop
  cc:	81 e0       	ldi	r24, 0x01	; 1
  ce:	0e 94 72 03 	call	0x6e4	; 0x6e4 <MDIO_u8ReadPort>
  d2:	90 e1       	ldi	r25, 0x10	; 16
  d4:	c9 9f       	mul	r28, r25
  d6:	90 01       	movw	r18, r0
  d8:	11 24       	eor	r1, r1
  da:	8f 70       	andi	r24, 0x0F	; 15
  dc:	68 2f       	mov	r22, r24
  de:	62 2b       	or	r22, r18
  e0:	81 e0       	ldi	r24, 0x01	; 1
  e2:	0e 94 84 03 	call	0x708	; 0x708 <MDIO_vidWritePort>
  e6:	60 e0       	ldi	r22, 0x00	; 0
  e8:	8b e0       	ldi	r24, 0x0B	; 11
  ea:	0e 94 f0 02 	call	0x5e0	; 0x5e0 <MDIO_vidWriteChannel>
  ee:	8f e8       	ldi	r24, 0x8F	; 143
  f0:	91 e0       	ldi	r25, 0x01	; 1
  f2:	01 97       	sbiw	r24, 0x01	; 1
  f4:	f1 f7       	brne	.-4      	; 0xf2 <HLCD_vidSendCommend+0x70>
  f6:	00 c0       	rjmp	.+0      	; 0xf8 <HLCD_vidSendCommend+0x76>
  f8:	00 00       	nop
  fa:	61 e0       	ldi	r22, 0x01	; 1
  fc:	8b e0       	ldi	r24, 0x0B	; 11
  fe:	0e 94 f0 02 	call	0x5e0	; 0x5e0 <MDIO_vidWriteChannel>
 102:	8f e3       	ldi	r24, 0x3F	; 63
 104:	9f e1       	ldi	r25, 0x1F	; 31
 106:	01 97       	sbiw	r24, 0x01	; 1
 108:	f1 f7       	brne	.-4      	; 0x106 <HLCD_vidSendCommend+0x84>
 10a:	00 c0       	rjmp	.+0      	; 0x10c <HLCD_vidSendCommend+0x8a>
 10c:	00 00       	nop
 10e:	cf 91       	pop	r28
 110:	08 95       	ret

00000112 <HLCD_vidInit>:
 112:	60 e0       	ldi	r22, 0x00	; 0
 114:	89 e0       	ldi	r24, 0x09	; 9
 116:	0e 94 f0 02 	call	0x5e0	; 0x5e0 <MDIO_vidWriteChannel>
 11a:	60 e0       	ldi	r22, 0x00	; 0
 11c:	8a e0       	ldi	r24, 0x0A	; 10
 11e:	0e 94 f0 02 	call	0x5e0	; 0x5e0 <MDIO_vidWriteChannel>
 122:	61 e0       	ldi	r22, 0x01	; 1
 124:	8b e0       	ldi	r24, 0x0B	; 11
 126:	0e 94 f0 02 	call	0x5e0	; 0x5e0 <MDIO_vidWriteChannel>
 12a:	2f ef       	ldi	r18, 0xFF	; 255
 12c:	89 ef       	ldi	r24, 0xF9	; 249
 12e:	90 e0       	ldi	r25, 0x00	; 0
 130:	21 50       	subi	r18, 0x01	; 1
 132:	80 40       	sbci	r24, 0x00	; 0
 134:	90 40       	sbci	r25, 0x00	; 0
 136:	e1 f7       	brne	.-8      	; 0x130 <HLCD_vidInit+0x1e>
 138:	00 c0       	rjmp	.+0      	; 0x13a <HLCD_vidInit+0x28>
 13a:	00 00       	nop
 13c:	83 e3       	ldi	r24, 0x33	; 51
 13e:	0e 94 41 00 	call	0x82	; 0x82 <HLCD_vidSendCommend>
 142:	82 e3       	ldi	r24, 0x32	; 50
 144:	0e 94 41 00 	call	0x82	; 0x82 <HLCD_vidSendCommend>
 148:	88 e2       	ldi	r24, 0x28	; 40
 14a:	0e 94 41 00 	call	0x82	; 0x82 <HLCD_vidSendCommend>
 14e:	86 e0       	ldi	r24, 0x06	; 6
 150:	0e 94 41 00 	call	0x82	; 0x82 <HLCD_vidSendCommend>
 154:	8c e0       	ldi	r24, 0x0C	; 12
 156:	0e 94 41 00 	call	0x82	; 0x82 <HLCD_vidSendCommend>
 15a:	08 95       	ret

0000015c <HLCD_vidSendChar>:
 15c:	cf 93       	push	r28
 15e:	c8 2f       	mov	r28, r24
 160:	61 e0       	ldi	r22, 0x01	; 1
 162:	89 e0       	ldi	r24, 0x09	; 9
 164:	0e 94 f0 02 	call	0x5e0	; 0x5e0 <MDIO_vidWriteChannel>
 168:	81 e0       	ldi	r24, 0x01	; 1
 16a:	0e 94 72 03 	call	0x6e4	; 0x6e4 <MDIO_u8ReadPort>
 16e:	8f 70       	andi	r24, 0x0F	; 15
 170:	9c 2f       	mov	r25, r28
 172:	90 7f       	andi	r25, 0xF0	; 240
 174:	68 2f       	mov	r22, r24
 176:	69 2b       	or	r22, r25
 178:	81 e0       	ldi	r24, 0x01	; 1
 17a:	0e 94 84 03 	call	0x708	; 0x708 <MDIO_vidWritePort>
 17e:	60 e0       	ldi	r22, 0x00	; 0
 180:	8b e0       	ldi	r24, 0x0B	; 11
 182:	0e 94 f0 02 	call	0x5e0	; 0x5e0 <MDIO_vidWriteChannel>
 186:	8f e9       	ldi	r24, 0x9F	; 159
 188:	9f e0       	ldi	r25, 0x0F	; 15
 18a:	01 97       	sbiw	r24, 0x01	; 1
 18c:	f1 f7       	brne	.-4      	; 0x18a <HLCD_vidSendChar+0x2e>
 18e:	00 c0       	rjmp	.+0      	; 0x190 <HLCD_vidSendChar+0x34>
 190:	00 00       	nop
 192:	61 e0       	ldi	r22, 0x01	; 1
 194:	8b e0       	ldi	r24, 0x0B	; 11
 196:	0e 94 f0 02 	call	0x5e0	; 0x5e0 <MDIO_vidWriteChannel>
 19a:	8f e1       	ldi	r24, 0x1F	; 31
 19c:	9e e4       	ldi	r25, 0x4E	; 78
 19e:	01 97       	sbiw	r24, 0x01	; 1
 1a0:	f1 f7       	brne	.-4      	; 0x19e <HLCD_vidSendChar+0x42>
 1a2:	00 c0       	rjmp	.+0      	; 0x1a4 <HLCD_vidSendChar+0x48>
 1a4:	00 00       	nop
 1a6:	81 e0       	ldi	r24, 0x01	; 1
 1a8:	0e 94 72 03 	call	0x6e4	; 0x6e4 <MDIO_u8ReadPort>
 1ac:	90 e1       	ldi	r25, 0x10	; 16
 1ae:	c9 9f       	mul	r28, r25
 1b0:	90 01       	movw	r18, r0
 1b2:	11 24       	eor	r1, r1
 1b4:	8f 70       	andi	r24, 0x0F	; 15
 1b6:	68 2f       	mov	r22, r24
 1b8:	62 2b       	or	r22, r18
 1ba:	81 e0       	ldi	r24, 0x01	; 1
 1bc:	0e 94 84 03 	call	0x708	; 0x708 <MDIO_vidWritePort>
 1c0:	60 e0       	ldi	r22, 0x00	; 0
 1c2:	8b e0       	ldi	r24, 0x0B	; 11
 1c4:	0e 94 f0 02 	call	0x5e0	; 0x5e0 <MDIO_vidWriteChannel>
 1c8:	8f e9       	ldi	r24, 0x9F	; 159
 1ca:	9f e0       	ldi	r25, 0x0F	; 15
 1cc:	01 97       	sbiw	r24, 0x01	; 1
 1ce:	f1 f7       	brne	.-4      	; 0x1cc <HLCD_vidSendChar+0x70>
 1d0:	00 c0       	rjmp	.+0      	; 0x1d2 <HLCD_vidSendChar+0x76>
 1d2:	00 00       	nop
 1d4:	61 e0       	ldi	r22, 0x01	; 1
 1d6:	8b e0       	ldi	r24, 0x0B	; 11
 1d8:	0e 94 f0 02 	call	0x5e0	; 0x5e0 <MDIO_vidWriteChannel>
 1dc:	8f e3       	ldi	r24, 0x3F	; 63
 1de:	9f e1       	ldi	r25, 0x1F	; 31
 1e0:	01 97       	sbiw	r24, 0x01	; 1
 1e2:	f1 f7       	brne	.-4      	; 0x1e0 <HLCD_vidSendChar+0x84>
 1e4:	00 c0       	rjmp	.+0      	; 0x1e6 <HLCD_vidSendChar+0x8a>
 1e6:	00 00       	nop
 1e8:	cf 91       	pop	r28
 1ea:	08 95       	ret

000001ec <HLCD_vidSendString>:
 1ec:	0f 93       	push	r16
 1ee:	1f 93       	push	r17
 1f0:	cf 93       	push	r28
 1f2:	8c 01       	movw	r16, r24
 1f4:	c0 e0       	ldi	r28, 0x00	; 0
 1f6:	03 c0       	rjmp	.+6      	; 0x1fe <HLCD_vidSendString+0x12>
 1f8:	0e 94 ae 00 	call	0x15c	; 0x15c <HLCD_vidSendChar>
 1fc:	cf 5f       	subi	r28, 0xFF	; 255
 1fe:	f8 01       	movw	r30, r16
 200:	ec 0f       	add	r30, r28
 202:	f1 1d       	adc	r31, r1
 204:	80 81       	ld	r24, Z
 206:	81 11       	cpse	r24, r1
 208:	f7 cf       	rjmp	.-18     	; 0x1f8 <HLCD_vidSendString+0xc>
 20a:	cf 91       	pop	r28
 20c:	1f 91       	pop	r17
 20e:	0f 91       	pop	r16
 210:	08 95       	ret

00000212 <HLCD_vidSendNumber>:
 212:	8f 92       	push	r8
 214:	9f 92       	push	r9
 216:	af 92       	push	r10
 218:	bf 92       	push	r11
 21a:	cf 92       	push	r12
 21c:	df 92       	push	r13
 21e:	ef 92       	push	r14
 220:	ff 92       	push	r15
 222:	cf 93       	push	r28
 224:	4b 01       	movw	r8, r22
 226:	5c 01       	movw	r10, r24
 228:	61 15       	cp	r22, r1
 22a:	71 05       	cpc	r23, r1
 22c:	81 05       	cpc	r24, r1
 22e:	91 05       	cpc	r25, r1
 230:	21 f4       	brne	.+8      	; 0x23a <HLCD_vidSendNumber+0x28>
 232:	80 e3       	ldi	r24, 0x30	; 48
 234:	0e 94 ae 00 	call	0x15c	; 0x15c <HLCD_vidSendChar>
 238:	5c c0       	rjmp	.+184    	; 0x2f2 <HLCD_vidSendNumber+0xe0>
 23a:	99 23       	and	r25, r25
 23c:	5c f4       	brge	.+22     	; 0x254 <HLCD_vidSendNumber+0x42>
 23e:	8d e2       	ldi	r24, 0x2D	; 45
 240:	0e 94 ae 00 	call	0x15c	; 0x15c <HLCD_vidSendChar>
 244:	b0 94       	com	r11
 246:	a0 94       	com	r10
 248:	90 94       	com	r9
 24a:	80 94       	com	r8
 24c:	81 1c       	adc	r8, r1
 24e:	91 1c       	adc	r9, r1
 250:	a1 1c       	adc	r10, r1
 252:	b1 1c       	adc	r11, r1
 254:	a5 01       	movw	r20, r10
 256:	94 01       	movw	r18, r8
 258:	c1 2c       	mov	r12, r1
 25a:	d1 2c       	mov	r13, r1
 25c:	76 01       	movw	r14, r12
 25e:	c3 94       	inc	r12
 260:	1c c0       	rjmp	.+56     	; 0x29a <HLCD_vidSendNumber+0x88>
 262:	ca 01       	movw	r24, r20
 264:	b9 01       	movw	r22, r18
 266:	2a e0       	ldi	r18, 0x0A	; 10
 268:	30 e0       	ldi	r19, 0x00	; 0
 26a:	40 e0       	ldi	r20, 0x00	; 0
 26c:	50 e0       	ldi	r21, 0x00	; 0
 26e:	0e 94 99 06 	call	0xd32	; 0xd32 <__divmodsi4>
 272:	d7 01       	movw	r26, r14
 274:	c6 01       	movw	r24, r12
 276:	88 0f       	add	r24, r24
 278:	99 1f       	adc	r25, r25
 27a:	aa 1f       	adc	r26, r26
 27c:	bb 1f       	adc	r27, r27
 27e:	6c 01       	movw	r12, r24
 280:	7d 01       	movw	r14, r26
 282:	cc 0c       	add	r12, r12
 284:	dd 1c       	adc	r13, r13
 286:	ee 1c       	adc	r14, r14
 288:	ff 1c       	adc	r15, r15
 28a:	cc 0c       	add	r12, r12
 28c:	dd 1c       	adc	r13, r13
 28e:	ee 1c       	adc	r14, r14
 290:	ff 1c       	adc	r15, r15
 292:	c8 0e       	add	r12, r24
 294:	d9 1e       	adc	r13, r25
 296:	ea 1e       	adc	r14, r26
 298:	fb 1e       	adc	r15, r27
 29a:	21 15       	cp	r18, r1
 29c:	31 05       	cpc	r19, r1
 29e:	41 05       	cpc	r20, r1
 2a0:	51 05       	cpc	r21, r1
 2a2:	f9 f6       	brne	.-66     	; 0x262 <HLCD_vidSendNumber+0x50>
 2a4:	c7 01       	movw	r24, r14
 2a6:	b6 01       	movw	r22, r12
 2a8:	2a e0       	ldi	r18, 0x0A	; 10
 2aa:	30 e0       	ldi	r19, 0x00	; 0
 2ac:	40 e0       	ldi	r20, 0x00	; 0
 2ae:	50 e0       	ldi	r21, 0x00	; 0
 2b0:	0e 94 77 06 	call	0xcee	; 0xcee <__udivmodsi4>
 2b4:	69 01       	movw	r12, r18
 2b6:	7a 01       	movw	r14, r20
 2b8:	17 c0       	rjmp	.+46     	; 0x2e8 <HLCD_vidSendNumber+0xd6>
 2ba:	c5 01       	movw	r24, r10
 2bc:	b4 01       	movw	r22, r8
 2be:	a7 01       	movw	r20, r14
 2c0:	96 01       	movw	r18, r12
 2c2:	0e 94 77 06 	call	0xcee	; 0xcee <__udivmodsi4>
 2c6:	c2 2f       	mov	r28, r18
 2c8:	4b 01       	movw	r8, r22
 2ca:	5c 01       	movw	r10, r24
 2cc:	c7 01       	movw	r24, r14
 2ce:	b6 01       	movw	r22, r12
 2d0:	2a e0       	ldi	r18, 0x0A	; 10
 2d2:	30 e0       	ldi	r19, 0x00	; 0
 2d4:	40 e0       	ldi	r20, 0x00	; 0
 2d6:	50 e0       	ldi	r21, 0x00	; 0
 2d8:	0e 94 77 06 	call	0xcee	; 0xcee <__udivmodsi4>
 2dc:	69 01       	movw	r12, r18
 2de:	7a 01       	movw	r14, r20
 2e0:	80 e3       	ldi	r24, 0x30	; 48
 2e2:	8c 0f       	add	r24, r28
 2e4:	0e 94 ae 00 	call	0x15c	; 0x15c <HLCD_vidSendChar>
 2e8:	c1 14       	cp	r12, r1
 2ea:	d1 04       	cpc	r13, r1
 2ec:	e1 04       	cpc	r14, r1
 2ee:	f1 04       	cpc	r15, r1
 2f0:	21 f7       	brne	.-56     	; 0x2ba <HLCD_vidSendNumber+0xa8>
 2f2:	cf 91       	pop	r28
 2f4:	ff 90       	pop	r15
 2f6:	ef 90       	pop	r14
 2f8:	df 90       	pop	r13
 2fa:	cf 90       	pop	r12
 2fc:	bf 90       	pop	r11
 2fe:	af 90       	pop	r10
 300:	9f 90       	pop	r9
 302:	8f 90       	pop	r8
 304:	08 95       	ret

00000306 <HLCD_vidSetPosition>:
 306:	81 30       	cpi	r24, 0x01	; 1
 308:	19 f0       	breq	.+6      	; 0x310 <HLCD_vidSetPosition+0xa>
 30a:	82 30       	cpi	r24, 0x02	; 2
 30c:	39 f0       	breq	.+14     	; 0x31c <HLCD_vidSetPosition+0x16>
 30e:	08 95       	ret
 310:	86 2f       	mov	r24, r22
 312:	8f 70       	andi	r24, 0x0F	; 15
 314:	80 68       	ori	r24, 0x80	; 128
 316:	0e 94 41 00 	call	0x82	; 0x82 <HLCD_vidSendCommend>
 31a:	08 95       	ret
 31c:	86 2f       	mov	r24, r22
 31e:	8f 70       	andi	r24, 0x0F	; 15
 320:	80 6c       	ori	r24, 0xC0	; 192
 322:	0e 94 41 00 	call	0x82	; 0x82 <HLCD_vidSendCommend>
 326:	08 95       	ret

00000328 <HLCD_vidClearScreen>:
 328:	81 e0       	ldi	r24, 0x01	; 1
 32a:	0e 94 41 00 	call	0x82	; 0x82 <HLCD_vidSendCommend>
 32e:	08 95       	ret

00000330 <HFlexSensor_vidInit>:
 330:	0e 94 c8 02 	call	0x590	; 0x590 <MADC_vidInit>
 334:	08 95       	ret

00000336 <HFlexSensor_u16AnalogRead>:
 336:	cf 92       	push	r12
 338:	df 92       	push	r13
 33a:	ef 92       	push	r14
 33c:	ff 92       	push	r15
 33e:	0e 94 da 02 	call	0x5b4	; 0x5b4 <MADC_u16Read>
 342:	bc 01       	movw	r22, r24
 344:	66 0f       	add	r22, r22
 346:	77 1f       	adc	r23, r23
 348:	66 0f       	add	r22, r22
 34a:	77 1f       	adc	r23, r23
 34c:	68 0f       	add	r22, r24
 34e:	79 1f       	adc	r23, r25
 350:	80 e0       	ldi	r24, 0x00	; 0
 352:	90 e0       	ldi	r25, 0x00	; 0
 354:	0e 94 53 05 	call	0xaa6	; 0xaa6 <__floatunsisf>
 358:	20 e0       	ldi	r18, 0x00	; 0
 35a:	30 ec       	ldi	r19, 0xC0	; 192
 35c:	4f e7       	ldi	r20, 0x7F	; 127
 35e:	54 e4       	ldi	r21, 0x44	; 68
 360:	0e 94 e1 04 	call	0x9c2	; 0x9c2 <__divsf3>
 364:	6b 01       	movw	r12, r22
 366:	7c 01       	movw	r14, r24
 368:	20 e0       	ldi	r18, 0x00	; 0
 36a:	30 e0       	ldi	r19, 0x00	; 0
 36c:	a9 01       	movw	r20, r18
 36e:	0e 94 dc 04 	call	0x9b8	; 0x9b8 <__cmpsf2>
 372:	88 23       	and	r24, r24
 374:	a9 f0       	breq	.+42     	; 0x3a0 <HFlexSensor_u16AnalogRead+0x6a>
 376:	a7 01       	movw	r20, r14
 378:	96 01       	movw	r18, r12
 37a:	60 e0       	ldi	r22, 0x00	; 0
 37c:	70 e0       	ldi	r23, 0x00	; 0
 37e:	80 ea       	ldi	r24, 0xA0	; 160
 380:	90 e4       	ldi	r25, 0x40	; 64
 382:	0e 94 e1 04 	call	0x9c2	; 0x9c2 <__divsf3>
 386:	20 e0       	ldi	r18, 0x00	; 0
 388:	30 e0       	ldi	r19, 0x00	; 0
 38a:	40 e8       	ldi	r20, 0x80	; 128
 38c:	5f e3       	ldi	r21, 0x3F	; 63
 38e:	0e 94 6f 04 	call	0x8de	; 0x8de <__subsf3>
 392:	20 e0       	ldi	r18, 0x00	; 0
 394:	30 e0       	ldi	r19, 0x00	; 0
 396:	4a ef       	ldi	r20, 0xFA	; 250
 398:	53 e4       	ldi	r21, 0x43	; 67
 39a:	0e 94 0a 06 	call	0xc14	; 0xc14 <__mulsf3>
 39e:	04 c0       	rjmp	.+8      	; 0x3a8 <HFlexSensor_u16AnalogRead+0x72>
 3a0:	60 e0       	ldi	r22, 0x00	; 0
 3a2:	70 e8       	ldi	r23, 0x80	; 128
 3a4:	82 e7       	ldi	r24, 0x72	; 114
 3a6:	94 e4       	ldi	r25, 0x44	; 68
 3a8:	ff 90       	pop	r15
 3aa:	ef 90       	pop	r14
 3ac:	df 90       	pop	r13
 3ae:	cf 90       	pop	r12
 3b0:	08 95       	ret

000003b2 <main>:
#include "flex_sensor.h"

/* Code Speed Analog Flexible sensor & Motion Analog Flexible sensors */
				
int main(void)
{
 3b2:	cf 93       	push	r28
 3b4:	df 93       	push	r29
 3b6:	00 d0       	rcall	.+0      	; 0x3b8 <main+0x6>
 3b8:	00 d0       	rcall	.+0      	; 0x3ba <main+0x8>
 3ba:	00 d0       	rcall	.+0      	; 0x3bc <main+0xa>
 3bc:	cd b7       	in	r28, 0x3d	; 61
 3be:	de b7       	in	r29, 0x3e	; 62
	
	// Variable Initiation
	f32 loc_u8MotionState = 0; 
	u8 loc_u8ChosenConvertorCounter = 0, loc_u8MotionDirection = 5, loc_u8Motionflag = 0;
	u8 arr_u8MotionChannel[4] = {DIO_ChannelA1,DIO_ChannelA2,DIO_ChannelA3,DIO_ChannelA4};
 3c0:	81 e0       	ldi	r24, 0x01	; 1
 3c2:	89 83       	std	Y+1, r24	; 0x01
 3c4:	82 e0       	ldi	r24, 0x02	; 2
 3c6:	8a 83       	std	Y+2, r24	; 0x02
 3c8:	83 e0       	ldi	r24, 0x03	; 3
 3ca:	8b 83       	std	Y+3, r24	; 0x03
 3cc:	84 e0       	ldi	r24, 0x04	; 4
 3ce:	8c 83       	std	Y+4, r24	; 0x04
		   	
	MDIO_vidInit();		 //DIO Initiation
 3d0:	0e 94 94 03 	call	0x728	; 0x728 <MDIO_vidInit>
	
	UART_init();   	    //UART Initiation
 3d4:	0e 94 3a 04 	call	0x874	; 0x874 <UART_init>
	
   	HLCD_vidInit();		//LCD Initiation
 3d8:	0e 94 89 00 	call	0x112	; 0x112 <HLCD_vidInit>
	   	   
   	STD_ADC_InitType loc_STDOption = {ADC_Vref_AREF, ADC_Prescaler128};		//ADC References voltage and Prescaler
 3dc:	1d 82       	std	Y+5, r1	; 0x05
 3de:	87 e0       	ldi	r24, 0x07	; 7
 3e0:	8e 83       	std	Y+6, r24	; 0x06
   	
   	HFlexSensor_vidInit(&loc_STDOption);	//Flexible Sensor Initiation
 3e2:	ce 01       	movw	r24, r28
 3e4:	05 96       	adiw	r24, 0x05	; 5
 3e6:	0e 94 98 01 	call	0x330	; 0x330 <HFlexSensor_vidInit>
int main(void)
{
	
	// Variable Initiation
	f32 loc_u8MotionState = 0; 
	u8 loc_u8ChosenConvertorCounter = 0, loc_u8MotionDirection = 5, loc_u8Motionflag = 0;
 3ea:	0f 2e       	mov	r0, r31
 3ec:	f5 e0       	ldi	r31, 0x05	; 5
 3ee:	ff 2e       	mov	r15, r31
 3f0:	f0 2d       	mov	r31, r0
   	
   	HFlexSensor_vidInit(&loc_STDOption);	//Flexible Sensor Initiation
   	
   	while (1)
   	{		 
		loc_u8Motionflag = STD_Low;		// set loc_u8Motionflag variable to low
 3f2:	00 e0       	ldi	r16, 0x00	; 0
		
		for(loc_u8ChosenConvertorCounter = 0; loc_u8ChosenConvertorCounter < 4; loc_u8ChosenConvertorCounter++)		// For loop to read 4 motion flex sensor
 3f4:	10 e0       	ldi	r17, 0x00	; 0
 3f6:	1d c0       	rjmp	.+58     	; 0x432 <__EEPROM_REGION_LENGTH__+0x32>
		{			
			loc_u8MotionState = HFlexSensor_u16AnalogRead(arr_u8MotionChannel[loc_u8ChosenConvertorCounter]);		// Read Value of motion Flex Sensor
 3f8:	e1 e0       	ldi	r30, 0x01	; 1
 3fa:	f0 e0       	ldi	r31, 0x00	; 0
 3fc:	ec 0f       	add	r30, r28
 3fe:	fd 1f       	adc	r31, r29
 400:	e1 0f       	add	r30, r17
 402:	f1 1d       	adc	r31, r1
 404:	80 81       	ld	r24, Z
 406:	0e 94 9b 01 	call	0x336	; 0x336 <HFlexSensor_u16AnalogRead>
			
			if(loc_u8MotionState > 1180.0)			// if condition to check if flex sensor is bended
 40a:	20 e0       	ldi	r18, 0x00	; 0
 40c:	30 e8       	ldi	r19, 0x80	; 128
 40e:	43 e9       	ldi	r20, 0x93	; 147
 410:	54 e4       	ldi	r21, 0x44	; 68
 412:	0e 94 05 06 	call	0xc0a	; 0xc0a <__gesf2>
 416:	18 16       	cp	r1, r24
 418:	2c f4       	brge	.+10     	; 0x424 <__EEPROM_REGION_LENGTH__+0x24>
			{
				if(STD_High == loc_u8Motionflag)	// if condition to check if two or more flex sensor were bended
 41a:	01 30       	cpi	r16, 0x01	; 1
 41c:	69 f0       	breq	.+26     	; 0x438 <__EEPROM_REGION_LENGTH__+0x38>
					loc_u8MotionDirection = 5;
					break;
				}
				else                               // else condition to select motion direction 
				{
					loc_u8MotionDirection = loc_u8ChosenConvertorCounter;
 41e:	f1 2e       	mov	r15, r17
					loc_u8Motionflag = STD_High;
 420:	01 e0       	ldi	r16, 0x01	; 1
 422:	06 c0       	rjmp	.+12     	; 0x430 <__EEPROM_REGION_LENGTH__+0x30>
				}
			}
			else if(STD_Low == loc_u8Motionflag) // else if condition if there no motion order
 424:	01 11       	cpse	r16, r1
 426:	04 c0       	rjmp	.+8      	; 0x430 <__EEPROM_REGION_LENGTH__+0x30>
			{
				loc_u8MotionDirection = 5;
 428:	0f 2e       	mov	r0, r31
 42a:	f5 e0       	ldi	r31, 0x05	; 5
 42c:	ff 2e       	mov	r15, r31
 42e:	f0 2d       	mov	r31, r0
   	
   	while (1)
   	{		 
		loc_u8Motionflag = STD_Low;		// set loc_u8Motionflag variable to low
		
		for(loc_u8ChosenConvertorCounter = 0; loc_u8ChosenConvertorCounter < 4; loc_u8ChosenConvertorCounter++)		// For loop to read 4 motion flex sensor
 430:	1f 5f       	subi	r17, 0xFF	; 255
 432:	14 30       	cpi	r17, 0x04	; 4
 434:	08 f3       	brcs	.-62     	; 0x3f8 <main+0x46>
 436:	04 c0       	rjmp	.+8      	; 0x440 <__EEPROM_REGION_LENGTH__+0x40>
			if(loc_u8MotionState > 1180.0)			// if condition to check if flex sensor is bended
			{
				if(STD_High == loc_u8Motionflag)	// if condition to check if two or more flex sensor were bended
				{
					loc_u8Motionflag = STD_Low;
					loc_u8MotionDirection = 5;
 438:	0f 2e       	mov	r0, r31
 43a:	f5 e0       	ldi	r31, 0x05	; 5
 43c:	ff 2e       	mov	r15, r31
 43e:	f0 2d       	mov	r31, r0
				loc_u8MotionDirection = 5;
			}

		}
		
		HLCD_vidSetPosition(1,0);			// Select first line in LCD
 440:	60 e0       	ldi	r22, 0x00	; 0
 442:	81 e0       	ldi	r24, 0x01	; 1
 444:	0e 94 83 01 	call	0x306	; 0x306 <HLCD_vidSetPosition>
		HLCD_vidSendString("Direction: ");	// Print 'Direction:' Word in LCD
 448:	80 ea       	ldi	r24, 0xA0	; 160
 44a:	90 e0       	ldi	r25, 0x00	; 0
 44c:	0e 94 f6 00 	call	0x1ec	; 0x1ec <HLCD_vidSendString>
		
		switch(loc_u8MotionDirection)
 450:	21 e0       	ldi	r18, 0x01	; 1
 452:	f2 16       	cp	r15, r18
 454:	81 f0       	breq	.+32     	; 0x476 <__EEPROM_REGION_LENGTH__+0x76>
 456:	f2 16       	cp	r15, r18
 458:	38 f0       	brcs	.+14     	; 0x468 <__EEPROM_REGION_LENGTH__+0x68>
 45a:	82 e0       	ldi	r24, 0x02	; 2
 45c:	f8 16       	cp	r15, r24
 45e:	91 f0       	breq	.+36     	; 0x484 <__EEPROM_REGION_LENGTH__+0x84>
 460:	93 e0       	ldi	r25, 0x03	; 3
 462:	f9 16       	cp	r15, r25
 464:	b1 f0       	breq	.+44     	; 0x492 <__EEPROM_REGION_LENGTH__+0x92>
 466:	1c c0       	rjmp	.+56     	; 0x4a0 <__EEPROM_REGION_LENGTH__+0xa0>
		{
			case 0 : { UART_TxChar('F'); HLCD_vidSendChar('F'); break;}	// print F for forward motion order
 468:	86 e4       	ldi	r24, 0x46	; 70
 46a:	0e 94 6b 04 	call	0x8d6	; 0x8d6 <UART_TxChar>
 46e:	86 e4       	ldi	r24, 0x46	; 70
 470:	0e 94 ae 00 	call	0x15c	; 0x15c <HLCD_vidSendChar>
 474:	1c c0       	rjmp	.+56     	; 0x4ae <__EEPROM_REGION_LENGTH__+0xae>
			case 1 : { UART_TxChar('B'); HLCD_vidSendChar('B'); break;}	// print B for backward motion order
 476:	82 e4       	ldi	r24, 0x42	; 66
 478:	0e 94 6b 04 	call	0x8d6	; 0x8d6 <UART_TxChar>
 47c:	82 e4       	ldi	r24, 0x42	; 66
 47e:	0e 94 ae 00 	call	0x15c	; 0x15c <HLCD_vidSendChar>
 482:	15 c0       	rjmp	.+42     	; 0x4ae <__EEPROM_REGION_LENGTH__+0xae>
			case 2 : { UART_TxChar('R'); HLCD_vidSendChar('R'); break;}	// print R for right motion order
 484:	82 e5       	ldi	r24, 0x52	; 82
 486:	0e 94 6b 04 	call	0x8d6	; 0x8d6 <UART_TxChar>
 48a:	82 e5       	ldi	r24, 0x52	; 82
 48c:	0e 94 ae 00 	call	0x15c	; 0x15c <HLCD_vidSendChar>
 490:	0e c0       	rjmp	.+28     	; 0x4ae <__EEPROM_REGION_LENGTH__+0xae>
			case 3 : { UART_TxChar('L'); HLCD_vidSendChar('L'); break;}	// print L for left motion order
 492:	8c e4       	ldi	r24, 0x4C	; 76
 494:	0e 94 6b 04 	call	0x8d6	; 0x8d6 <UART_TxChar>
 498:	8c e4       	ldi	r24, 0x4C	; 76
 49a:	0e 94 ae 00 	call	0x15c	; 0x15c <HLCD_vidSendChar>
 49e:	07 c0       	rjmp	.+14     	; 0x4ae <__EEPROM_REGION_LENGTH__+0xae>
			default: { UART_TxChar('N'); HLCD_vidSendString("No M");}		// print No M for no motion order
 4a0:	8e e4       	ldi	r24, 0x4E	; 78
 4a2:	0e 94 6b 04 	call	0x8d6	; 0x8d6 <UART_TxChar>
 4a6:	8c ea       	ldi	r24, 0xAC	; 172
 4a8:	90 e0       	ldi	r25, 0x00	; 0
 4aa:	0e 94 f6 00 	call	0x1ec	; 0x1ec <HLCD_vidSendString>
		}
		

		loc_u8MotionState = HFlexSensor_u16AnalogRead(ADC_Channel0);			// Read Value of Speed Flex Sensor
 4ae:	80 e0       	ldi	r24, 0x00	; 0
 4b0:	0e 94 9b 01 	call	0x336	; 0x336 <HFlexSensor_u16AnalogRead>
 4b4:	4b 01       	movw	r8, r22
 4b6:	5c 01       	movw	r10, r24
		
		HLCD_vidSetPosition(2,0);			// Select Second line in LCD
 4b8:	60 e0       	ldi	r22, 0x00	; 0
 4ba:	82 e0       	ldi	r24, 0x02	; 2
 4bc:	0e 94 83 01 	call	0x306	; 0x306 <HLCD_vidSetPosition>
		HLCD_vidSendString("Speed: ");		// Print 'Speed:' Word in LCD
 4c0:	81 eb       	ldi	r24, 0xB1	; 177
 4c2:	90 e0       	ldi	r25, 0x00	; 0
 4c4:	0e 94 f6 00 	call	0x1ec	; 0x1ec <HLCD_vidSendString>
		
		// if else if else condition  to select Speed 
		if(loc_u8MotionState < 1100.0)			// if condition to See if there is no motion
 4c8:	20 e0       	ldi	r18, 0x00	; 0
 4ca:	30 e8       	ldi	r19, 0x80	; 128
 4cc:	49 e8       	ldi	r20, 0x89	; 137
 4ce:	54 e4       	ldi	r21, 0x44	; 68
 4d0:	c5 01       	movw	r24, r10
 4d2:	b4 01       	movw	r22, r8
 4d4:	0e 94 dc 04 	call	0x9b8	; 0x9b8 <__cmpsf2>
 4d8:	88 23       	and	r24, r24
 4da:	4c f4       	brge	.+18     	; 0x4ee <__EEPROM_REGION_LENGTH__+0xee>
		{
			HLCD_vidSendNumber(0);				// print 0 for no speed
 4dc:	60 e0       	ldi	r22, 0x00	; 0
 4de:	70 e0       	ldi	r23, 0x00	; 0
 4e0:	cb 01       	movw	r24, r22
 4e2:	0e 94 09 01 	call	0x212	; 0x212 <HLCD_vidSendNumber>
			UART_TxChar(0);
 4e6:	80 e0       	ldi	r24, 0x00	; 0
 4e8:	0e 94 6b 04 	call	0x8d6	; 0x8d6 <UART_TxChar>
 4ec:	45 c0       	rjmp	.+138    	; 0x578 <__EEPROM_REGION_LENGTH__+0x178>
		}
		else if(loc_u8MotionState < 1400.0)		// if condition to See if order of speed first level 
 4ee:	20 e0       	ldi	r18, 0x00	; 0
 4f0:	30 e0       	ldi	r19, 0x00	; 0
 4f2:	4f ea       	ldi	r20, 0xAF	; 175
 4f4:	54 e4       	ldi	r21, 0x44	; 68
 4f6:	c5 01       	movw	r24, r10
 4f8:	b4 01       	movw	r22, r8
 4fa:	0e 94 dc 04 	call	0x9b8	; 0x9b8 <__cmpsf2>
 4fe:	88 23       	and	r24, r24
 500:	54 f4       	brge	.+20     	; 0x516 <__EEPROM_REGION_LENGTH__+0x116>
		{
			HLCD_vidSendNumber(1);				// print 1 for first level of speed
 502:	61 e0       	ldi	r22, 0x01	; 1
 504:	70 e0       	ldi	r23, 0x00	; 0
 506:	80 e0       	ldi	r24, 0x00	; 0
 508:	90 e0       	ldi	r25, 0x00	; 0
 50a:	0e 94 09 01 	call	0x212	; 0x212 <HLCD_vidSendNumber>
			UART_TxChar(1);
 50e:	81 e0       	ldi	r24, 0x01	; 1
 510:	0e 94 6b 04 	call	0x8d6	; 0x8d6 <UART_TxChar>
 514:	31 c0       	rjmp	.+98     	; 0x578 <__EEPROM_REGION_LENGTH__+0x178>
		}
		else if(loc_u8MotionState < 1600.0)		// if condition to See if order of speed second level 
 516:	20 e0       	ldi	r18, 0x00	; 0
 518:	30 e0       	ldi	r19, 0x00	; 0
 51a:	48 ec       	ldi	r20, 0xC8	; 200
 51c:	54 e4       	ldi	r21, 0x44	; 68
 51e:	c5 01       	movw	r24, r10
 520:	b4 01       	movw	r22, r8
 522:	0e 94 dc 04 	call	0x9b8	; 0x9b8 <__cmpsf2>
 526:	88 23       	and	r24, r24
 528:	54 f4       	brge	.+20     	; 0x53e <__EEPROM_REGION_LENGTH__+0x13e>
		{
			HLCD_vidSendNumber(2);				// print 2 for second level of speed
 52a:	62 e0       	ldi	r22, 0x02	; 2
 52c:	70 e0       	ldi	r23, 0x00	; 0
 52e:	80 e0       	ldi	r24, 0x00	; 0
 530:	90 e0       	ldi	r25, 0x00	; 0
 532:	0e 94 09 01 	call	0x212	; 0x212 <HLCD_vidSendNumber>
			UART_TxChar(2);
 536:	82 e0       	ldi	r24, 0x02	; 2
 538:	0e 94 6b 04 	call	0x8d6	; 0x8d6 <UART_TxChar>
 53c:	1d c0       	rjmp	.+58     	; 0x578 <__EEPROM_REGION_LENGTH__+0x178>
		}
		else if(loc_u8MotionState < 1810.0)		// if condition to See if order of speed third level 
 53e:	20 e0       	ldi	r18, 0x00	; 0
 540:	30 e4       	ldi	r19, 0x40	; 64
 542:	42 ee       	ldi	r20, 0xE2	; 226
 544:	54 e4       	ldi	r21, 0x44	; 68
 546:	c5 01       	movw	r24, r10
 548:	b4 01       	movw	r22, r8
 54a:	0e 94 dc 04 	call	0x9b8	; 0x9b8 <__cmpsf2>
 54e:	88 23       	and	r24, r24
 550:	54 f4       	brge	.+20     	; 0x566 <__EEPROM_REGION_LENGTH__+0x166>
		{
			HLCD_vidSendNumber(3);				// print 3 for third level of speed
 552:	63 e0       	ldi	r22, 0x03	; 3
 554:	70 e0       	ldi	r23, 0x00	; 0
 556:	80 e0       	ldi	r24, 0x00	; 0
 558:	90 e0       	ldi	r25, 0x00	; 0
 55a:	0e 94 09 01 	call	0x212	; 0x212 <HLCD_vidSendNumber>
			UART_TxChar(3);
 55e:	83 e0       	ldi	r24, 0x03	; 3
 560:	0e 94 6b 04 	call	0x8d6	; 0x8d6 <UART_TxChar>
 564:	09 c0       	rjmp	.+18     	; 0x578 <__EEPROM_REGION_LENGTH__+0x178>
		}
		else									// if condition to See if order of speed fourth level 
		{
			HLCD_vidSendNumber(4);				// print 4 for fourth level of speed
 566:	64 e0       	ldi	r22, 0x04	; 4
 568:	70 e0       	ldi	r23, 0x00	; 0
 56a:	80 e0       	ldi	r24, 0x00	; 0
 56c:	90 e0       	ldi	r25, 0x00	; 0
 56e:	0e 94 09 01 	call	0x212	; 0x212 <HLCD_vidSendNumber>
			UART_TxChar(4);
 572:	84 e0       	ldi	r24, 0x04	; 4
 574:	0e 94 6b 04 	call	0x8d6	; 0x8d6 <UART_TxChar>
	#else
		//round up by default
		__ticks_dc = (uint32_t)(ceil(fabs(__tmp)));
	#endif

	__builtin_avr_delay_cycles(__ticks_dc);
 578:	2f ef       	ldi	r18, 0xFF	; 255
 57a:	83 ec       	ldi	r24, 0xC3	; 195
 57c:	99 e0       	ldi	r25, 0x09	; 9
 57e:	21 50       	subi	r18, 0x01	; 1
 580:	80 40       	sbci	r24, 0x00	; 0
 582:	90 40       	sbci	r25, 0x00	; 0
 584:	e1 f7       	brne	.-8      	; 0x57e <__EEPROM_REGION_LENGTH__+0x17e>
 586:	00 c0       	rjmp	.+0      	; 0x588 <__EEPROM_REGION_LENGTH__+0x188>
 588:	00 00       	nop
		}
		
		_delay_ms(200);
		HLCD_vidClearScreen();
 58a:	0e 94 94 01 	call	0x328	; 0x328 <HLCD_vidClearScreen>
   	}
 58e:	31 cf       	rjmp	.-414    	; 0x3f2 <main+0x40>

00000590 <MADC_vidInit>:
 590:	fc 01       	movw	r30, r24
 592:	90 81       	ld	r25, Z
 594:	92 95       	swap	r25
 596:	99 0f       	add	r25, r25
 598:	99 0f       	add	r25, r25
 59a:	90 7c       	andi	r25, 0xC0	; 192
 59c:	97 b9       	out	0x07, r25	; 7
 59e:	96 b1       	in	r25, 0x06	; 6
 5a0:	81 81       	ldd	r24, Z+1	; 0x01
 5a2:	89 2b       	or	r24, r25
 5a4:	86 b9       	out	0x06, r24	; 6
 5a6:	86 b1       	in	r24, 0x06	; 6
 5a8:	8f 7d       	andi	r24, 0xDF	; 223
 5aa:	86 b9       	out	0x06, r24	; 6
 5ac:	86 b1       	in	r24, 0x06	; 6
 5ae:	80 68       	ori	r24, 0x80	; 128
 5b0:	86 b9       	out	0x06, r24	; 6
 5b2:	08 95       	ret

000005b4 <MADC_u16Read>:
 5b4:	97 b1       	in	r25, 0x07	; 7
 5b6:	90 7e       	andi	r25, 0xE0	; 224
 5b8:	97 b9       	out	0x07, r25	; 7
 5ba:	97 b1       	in	r25, 0x07	; 7
 5bc:	8f 71       	andi	r24, 0x1F	; 31
 5be:	98 2b       	or	r25, r24
 5c0:	97 b9       	out	0x07, r25	; 7
 5c2:	86 b1       	in	r24, 0x06	; 6
 5c4:	80 64       	ori	r24, 0x40	; 64
 5c6:	86 b9       	out	0x06, r24	; 6
 5c8:	34 9b       	sbis	0x06, 4	; 6
 5ca:	fe cf       	rjmp	.-4      	; 0x5c8 <MADC_u16Read+0x14>
 5cc:	86 b1       	in	r24, 0x06	; 6
 5ce:	80 61       	ori	r24, 0x10	; 16
 5d0:	86 b9       	out	0x06, r24	; 6
 5d2:	24 b1       	in	r18, 0x04	; 4
 5d4:	85 b1       	in	r24, 0x05	; 5
 5d6:	90 e0       	ldi	r25, 0x00	; 0
 5d8:	98 2f       	mov	r25, r24
 5da:	88 27       	eor	r24, r24
 5dc:	82 2b       	or	r24, r18
 5de:	08 95       	ret

000005e0 <MDIO_vidWriteChannel>:
 5e0:	98 2f       	mov	r25, r24
 5e2:	96 95       	lsr	r25
 5e4:	96 95       	lsr	r25
 5e6:	96 95       	lsr	r25
 5e8:	87 70       	andi	r24, 0x07	; 7
 5ea:	91 30       	cpi	r25, 0x01	; 1
 5ec:	21 f1       	breq	.+72     	; 0x636 <MDIO_vidWriteChannel+0x56>
 5ee:	30 f0       	brcs	.+12     	; 0x5fc <MDIO_vidWriteChannel+0x1c>
 5f0:	92 30       	cpi	r25, 0x02	; 2
 5f2:	f1 f1       	breq	.+124    	; 0x670 <MDIO_vidWriteChannel+0x90>
 5f4:	93 30       	cpi	r25, 0x03	; 3
 5f6:	09 f4       	brne	.+2      	; 0x5fa <MDIO_vidWriteChannel+0x1a>
 5f8:	58 c0       	rjmp	.+176    	; 0x6aa <MDIO_vidWriteChannel+0xca>
 5fa:	08 95       	ret
 5fc:	61 30       	cpi	r22, 0x01	; 1
 5fe:	69 f4       	brne	.+26     	; 0x61a <MDIO_vidWriteChannel+0x3a>
 600:	4b b3       	in	r20, 0x1b	; 27
 602:	21 e0       	ldi	r18, 0x01	; 1
 604:	30 e0       	ldi	r19, 0x00	; 0
 606:	b9 01       	movw	r22, r18
 608:	02 c0       	rjmp	.+4      	; 0x60e <MDIO_vidWriteChannel+0x2e>
 60a:	66 0f       	add	r22, r22
 60c:	77 1f       	adc	r23, r23
 60e:	8a 95       	dec	r24
 610:	e2 f7       	brpl	.-8      	; 0x60a <MDIO_vidWriteChannel+0x2a>
 612:	cb 01       	movw	r24, r22
 614:	84 2b       	or	r24, r20
 616:	8b bb       	out	0x1b, r24	; 27
 618:	08 95       	ret
 61a:	4b b3       	in	r20, 0x1b	; 27
 61c:	21 e0       	ldi	r18, 0x01	; 1
 61e:	30 e0       	ldi	r19, 0x00	; 0
 620:	b9 01       	movw	r22, r18
 622:	02 c0       	rjmp	.+4      	; 0x628 <MDIO_vidWriteChannel+0x48>
 624:	66 0f       	add	r22, r22
 626:	77 1f       	adc	r23, r23
 628:	8a 95       	dec	r24
 62a:	e2 f7       	brpl	.-8      	; 0x624 <MDIO_vidWriteChannel+0x44>
 62c:	cb 01       	movw	r24, r22
 62e:	80 95       	com	r24
 630:	84 23       	and	r24, r20
 632:	8b bb       	out	0x1b, r24	; 27
 634:	08 95       	ret
 636:	61 30       	cpi	r22, 0x01	; 1
 638:	69 f4       	brne	.+26     	; 0x654 <MDIO_vidWriteChannel+0x74>
 63a:	48 b3       	in	r20, 0x18	; 24
 63c:	21 e0       	ldi	r18, 0x01	; 1
 63e:	30 e0       	ldi	r19, 0x00	; 0
 640:	b9 01       	movw	r22, r18
 642:	02 c0       	rjmp	.+4      	; 0x648 <MDIO_vidWriteChannel+0x68>
 644:	66 0f       	add	r22, r22
 646:	77 1f       	adc	r23, r23
 648:	8a 95       	dec	r24
 64a:	e2 f7       	brpl	.-8      	; 0x644 <MDIO_vidWriteChannel+0x64>
 64c:	cb 01       	movw	r24, r22
 64e:	84 2b       	or	r24, r20
 650:	88 bb       	out	0x18, r24	; 24
 652:	08 95       	ret
 654:	48 b3       	in	r20, 0x18	; 24
 656:	21 e0       	ldi	r18, 0x01	; 1
 658:	30 e0       	ldi	r19, 0x00	; 0
 65a:	b9 01       	movw	r22, r18
 65c:	02 c0       	rjmp	.+4      	; 0x662 <MDIO_vidWriteChannel+0x82>
 65e:	66 0f       	add	r22, r22
 660:	77 1f       	adc	r23, r23
 662:	8a 95       	dec	r24
 664:	e2 f7       	brpl	.-8      	; 0x65e <MDIO_vidWriteChannel+0x7e>
 666:	cb 01       	movw	r24, r22
 668:	80 95       	com	r24
 66a:	84 23       	and	r24, r20
 66c:	88 bb       	out	0x18, r24	; 24
 66e:	08 95       	ret
 670:	61 30       	cpi	r22, 0x01	; 1
 672:	69 f4       	brne	.+26     	; 0x68e <MDIO_vidWriteChannel+0xae>
 674:	45 b3       	in	r20, 0x15	; 21
 676:	21 e0       	ldi	r18, 0x01	; 1
 678:	30 e0       	ldi	r19, 0x00	; 0
 67a:	b9 01       	movw	r22, r18
 67c:	02 c0       	rjmp	.+4      	; 0x682 <MDIO_vidWriteChannel+0xa2>
 67e:	66 0f       	add	r22, r22
 680:	77 1f       	adc	r23, r23
 682:	8a 95       	dec	r24
 684:	e2 f7       	brpl	.-8      	; 0x67e <MDIO_vidWriteChannel+0x9e>
 686:	cb 01       	movw	r24, r22
 688:	84 2b       	or	r24, r20
 68a:	85 bb       	out	0x15, r24	; 21
 68c:	08 95       	ret
 68e:	45 b3       	in	r20, 0x15	; 21
 690:	21 e0       	ldi	r18, 0x01	; 1
 692:	30 e0       	ldi	r19, 0x00	; 0
 694:	b9 01       	movw	r22, r18
 696:	02 c0       	rjmp	.+4      	; 0x69c <MDIO_vidWriteChannel+0xbc>
 698:	66 0f       	add	r22, r22
 69a:	77 1f       	adc	r23, r23
 69c:	8a 95       	dec	r24
 69e:	e2 f7       	brpl	.-8      	; 0x698 <MDIO_vidWriteChannel+0xb8>
 6a0:	cb 01       	movw	r24, r22
 6a2:	80 95       	com	r24
 6a4:	84 23       	and	r24, r20
 6a6:	85 bb       	out	0x15, r24	; 21
 6a8:	08 95       	ret
 6aa:	61 30       	cpi	r22, 0x01	; 1
 6ac:	69 f4       	brne	.+26     	; 0x6c8 <MDIO_vidWriteChannel+0xe8>
 6ae:	42 b3       	in	r20, 0x12	; 18
 6b0:	21 e0       	ldi	r18, 0x01	; 1
 6b2:	30 e0       	ldi	r19, 0x00	; 0
 6b4:	b9 01       	movw	r22, r18
 6b6:	02 c0       	rjmp	.+4      	; 0x6bc <MDIO_vidWriteChannel+0xdc>
 6b8:	66 0f       	add	r22, r22
 6ba:	77 1f       	adc	r23, r23
 6bc:	8a 95       	dec	r24
 6be:	e2 f7       	brpl	.-8      	; 0x6b8 <MDIO_vidWriteChannel+0xd8>
 6c0:	cb 01       	movw	r24, r22
 6c2:	84 2b       	or	r24, r20
 6c4:	82 bb       	out	0x12, r24	; 18
 6c6:	08 95       	ret
 6c8:	42 b3       	in	r20, 0x12	; 18
 6ca:	21 e0       	ldi	r18, 0x01	; 1
 6cc:	30 e0       	ldi	r19, 0x00	; 0
 6ce:	b9 01       	movw	r22, r18
 6d0:	02 c0       	rjmp	.+4      	; 0x6d6 <MDIO_vidWriteChannel+0xf6>
 6d2:	66 0f       	add	r22, r22
 6d4:	77 1f       	adc	r23, r23
 6d6:	8a 95       	dec	r24
 6d8:	e2 f7       	brpl	.-8      	; 0x6d2 <MDIO_vidWriteChannel+0xf2>
 6da:	cb 01       	movw	r24, r22
 6dc:	80 95       	com	r24
 6de:	84 23       	and	r24, r20
 6e0:	82 bb       	out	0x12, r24	; 18
 6e2:	08 95       	ret

000006e4 <MDIO_u8ReadPort>:
 6e4:	81 30       	cpi	r24, 0x01	; 1
 6e6:	41 f0       	breq	.+16     	; 0x6f8 <MDIO_u8ReadPort+0x14>
 6e8:	28 f0       	brcs	.+10     	; 0x6f4 <MDIO_u8ReadPort+0x10>
 6ea:	82 30       	cpi	r24, 0x02	; 2
 6ec:	39 f0       	breq	.+14     	; 0x6fc <MDIO_u8ReadPort+0x18>
 6ee:	83 30       	cpi	r24, 0x03	; 3
 6f0:	39 f0       	breq	.+14     	; 0x700 <MDIO_u8ReadPort+0x1c>
 6f2:	08 c0       	rjmp	.+16     	; 0x704 <MDIO_u8ReadPort+0x20>
 6f4:	8b b3       	in	r24, 0x1b	; 27
 6f6:	08 95       	ret
 6f8:	88 b3       	in	r24, 0x18	; 24
 6fa:	08 95       	ret
 6fc:	85 b3       	in	r24, 0x15	; 21
 6fe:	08 95       	ret
 700:	82 b3       	in	r24, 0x12	; 18
 702:	08 95       	ret
 704:	80 e0       	ldi	r24, 0x00	; 0
 706:	08 95       	ret

00000708 <MDIO_vidWritePort>:
 708:	81 30       	cpi	r24, 0x01	; 1
 70a:	41 f0       	breq	.+16     	; 0x71c <MDIO_vidWritePort+0x14>
 70c:	28 f0       	brcs	.+10     	; 0x718 <MDIO_vidWritePort+0x10>
 70e:	82 30       	cpi	r24, 0x02	; 2
 710:	39 f0       	breq	.+14     	; 0x720 <MDIO_vidWritePort+0x18>
 712:	83 30       	cpi	r24, 0x03	; 3
 714:	39 f0       	breq	.+14     	; 0x724 <MDIO_vidWritePort+0x1c>
 716:	08 95       	ret
 718:	6b bb       	out	0x1b, r22	; 27
 71a:	08 95       	ret
 71c:	68 bb       	out	0x18, r22	; 24
 71e:	08 95       	ret
 720:	65 bb       	out	0x15, r22	; 21
 722:	08 95       	ret
 724:	62 bb       	out	0x12, r22	; 18
 726:	08 95       	ret

00000728 <MDIO_vidInit>:
 728:	80 e0       	ldi	r24, 0x00	; 0
 72a:	a0 c0       	rjmp	.+320    	; 0x86c <__stack+0xd>
 72c:	98 2f       	mov	r25, r24
 72e:	96 95       	lsr	r25
 730:	96 95       	lsr	r25
 732:	96 95       	lsr	r25
 734:	28 2f       	mov	r18, r24
 736:	27 70       	andi	r18, 0x07	; 7
 738:	91 30       	cpi	r25, 0x01	; 1
 73a:	61 f1       	breq	.+88     	; 0x794 <MDIO_vidInit+0x6c>
 73c:	38 f0       	brcs	.+14     	; 0x74c <MDIO_vidInit+0x24>
 73e:	92 30       	cpi	r25, 0x02	; 2
 740:	09 f4       	brne	.+2      	; 0x744 <MDIO_vidInit+0x1c>
 742:	4c c0       	rjmp	.+152    	; 0x7dc <MDIO_vidInit+0xb4>
 744:	93 30       	cpi	r25, 0x03	; 3
 746:	09 f4       	brne	.+2      	; 0x74a <MDIO_vidInit+0x22>
 748:	6d c0       	rjmp	.+218    	; 0x824 <__DATA_REGION_LENGTH__+0x24>
 74a:	8f c0       	rjmp	.+286    	; 0x86a <__stack+0xb>
 74c:	e8 2f       	mov	r30, r24
 74e:	f0 e0       	ldi	r31, 0x00	; 0
 750:	ee 0f       	add	r30, r30
 752:	ff 1f       	adc	r31, r31
 754:	e0 5a       	subi	r30, 0xA0	; 160
 756:	ff 4f       	sbci	r31, 0xFF	; 255
 758:	90 81       	ld	r25, Z
 75a:	91 30       	cpi	r25, 0x01	; 1
 75c:	69 f4       	brne	.+26     	; 0x778 <MDIO_vidInit+0x50>
 75e:	9a b3       	in	r25, 0x1a	; 26
 760:	41 e0       	ldi	r20, 0x01	; 1
 762:	50 e0       	ldi	r21, 0x00	; 0
 764:	ba 01       	movw	r22, r20
 766:	02 c0       	rjmp	.+4      	; 0x76c <MDIO_vidInit+0x44>
 768:	66 0f       	add	r22, r22
 76a:	77 1f       	adc	r23, r23
 76c:	2a 95       	dec	r18
 76e:	e2 f7       	brpl	.-8      	; 0x768 <MDIO_vidInit+0x40>
 770:	9b 01       	movw	r18, r22
 772:	29 2b       	or	r18, r25
 774:	2a bb       	out	0x1a, r18	; 26
 776:	79 c0       	rjmp	.+242    	; 0x86a <__stack+0xb>
 778:	9a b3       	in	r25, 0x1a	; 26
 77a:	41 e0       	ldi	r20, 0x01	; 1
 77c:	50 e0       	ldi	r21, 0x00	; 0
 77e:	ba 01       	movw	r22, r20
 780:	02 c0       	rjmp	.+4      	; 0x786 <MDIO_vidInit+0x5e>
 782:	66 0f       	add	r22, r22
 784:	77 1f       	adc	r23, r23
 786:	2a 95       	dec	r18
 788:	e2 f7       	brpl	.-8      	; 0x782 <MDIO_vidInit+0x5a>
 78a:	9b 01       	movw	r18, r22
 78c:	20 95       	com	r18
 78e:	29 23       	and	r18, r25
 790:	2a bb       	out	0x1a, r18	; 26
 792:	6b c0       	rjmp	.+214    	; 0x86a <__stack+0xb>
 794:	e8 2f       	mov	r30, r24
 796:	f0 e0       	ldi	r31, 0x00	; 0
 798:	ee 0f       	add	r30, r30
 79a:	ff 1f       	adc	r31, r31
 79c:	e0 5a       	subi	r30, 0xA0	; 160
 79e:	ff 4f       	sbci	r31, 0xFF	; 255
 7a0:	90 81       	ld	r25, Z
 7a2:	91 30       	cpi	r25, 0x01	; 1
 7a4:	69 f4       	brne	.+26     	; 0x7c0 <MDIO_vidInit+0x98>
 7a6:	97 b3       	in	r25, 0x17	; 23
 7a8:	41 e0       	ldi	r20, 0x01	; 1
 7aa:	50 e0       	ldi	r21, 0x00	; 0
 7ac:	ba 01       	movw	r22, r20
 7ae:	02 c0       	rjmp	.+4      	; 0x7b4 <MDIO_vidInit+0x8c>
 7b0:	66 0f       	add	r22, r22
 7b2:	77 1f       	adc	r23, r23
 7b4:	2a 95       	dec	r18
 7b6:	e2 f7       	brpl	.-8      	; 0x7b0 <MDIO_vidInit+0x88>
 7b8:	9b 01       	movw	r18, r22
 7ba:	29 2b       	or	r18, r25
 7bc:	27 bb       	out	0x17, r18	; 23
 7be:	55 c0       	rjmp	.+170    	; 0x86a <__stack+0xb>
 7c0:	97 b3       	in	r25, 0x17	; 23
 7c2:	41 e0       	ldi	r20, 0x01	; 1
 7c4:	50 e0       	ldi	r21, 0x00	; 0
 7c6:	ba 01       	movw	r22, r20
 7c8:	02 c0       	rjmp	.+4      	; 0x7ce <MDIO_vidInit+0xa6>
 7ca:	66 0f       	add	r22, r22
 7cc:	77 1f       	adc	r23, r23
 7ce:	2a 95       	dec	r18
 7d0:	e2 f7       	brpl	.-8      	; 0x7ca <MDIO_vidInit+0xa2>
 7d2:	9b 01       	movw	r18, r22
 7d4:	20 95       	com	r18
 7d6:	29 23       	and	r18, r25
 7d8:	27 bb       	out	0x17, r18	; 23
 7da:	47 c0       	rjmp	.+142    	; 0x86a <__stack+0xb>
 7dc:	e8 2f       	mov	r30, r24
 7de:	f0 e0       	ldi	r31, 0x00	; 0
 7e0:	ee 0f       	add	r30, r30
 7e2:	ff 1f       	adc	r31, r31
 7e4:	e0 5a       	subi	r30, 0xA0	; 160
 7e6:	ff 4f       	sbci	r31, 0xFF	; 255
 7e8:	90 81       	ld	r25, Z
 7ea:	91 30       	cpi	r25, 0x01	; 1
 7ec:	69 f4       	brne	.+26     	; 0x808 <__DATA_REGION_LENGTH__+0x8>
 7ee:	94 b3       	in	r25, 0x14	; 20
 7f0:	41 e0       	ldi	r20, 0x01	; 1
 7f2:	50 e0       	ldi	r21, 0x00	; 0
 7f4:	ba 01       	movw	r22, r20
 7f6:	02 c0       	rjmp	.+4      	; 0x7fc <MDIO_vidInit+0xd4>
 7f8:	66 0f       	add	r22, r22
 7fa:	77 1f       	adc	r23, r23
 7fc:	2a 95       	dec	r18
 7fe:	e2 f7       	brpl	.-8      	; 0x7f8 <MDIO_vidInit+0xd0>
 800:	9b 01       	movw	r18, r22
 802:	29 2b       	or	r18, r25
 804:	24 bb       	out	0x14, r18	; 20
 806:	31 c0       	rjmp	.+98     	; 0x86a <__stack+0xb>
 808:	94 b3       	in	r25, 0x14	; 20
 80a:	41 e0       	ldi	r20, 0x01	; 1
 80c:	50 e0       	ldi	r21, 0x00	; 0
 80e:	ba 01       	movw	r22, r20
 810:	02 c0       	rjmp	.+4      	; 0x816 <__DATA_REGION_LENGTH__+0x16>
 812:	66 0f       	add	r22, r22
 814:	77 1f       	adc	r23, r23
 816:	2a 95       	dec	r18
 818:	e2 f7       	brpl	.-8      	; 0x812 <__DATA_REGION_LENGTH__+0x12>
 81a:	9b 01       	movw	r18, r22
 81c:	20 95       	com	r18
 81e:	29 23       	and	r18, r25
 820:	24 bb       	out	0x14, r18	; 20
 822:	23 c0       	rjmp	.+70     	; 0x86a <__stack+0xb>
 824:	e8 2f       	mov	r30, r24
 826:	f0 e0       	ldi	r31, 0x00	; 0
 828:	ee 0f       	add	r30, r30
 82a:	ff 1f       	adc	r31, r31
 82c:	e0 5a       	subi	r30, 0xA0	; 160
 82e:	ff 4f       	sbci	r31, 0xFF	; 255
 830:	90 81       	ld	r25, Z
 832:	91 30       	cpi	r25, 0x01	; 1
 834:	69 f4       	brne	.+26     	; 0x850 <__DATA_REGION_LENGTH__+0x50>
 836:	91 b3       	in	r25, 0x11	; 17
 838:	41 e0       	ldi	r20, 0x01	; 1
 83a:	50 e0       	ldi	r21, 0x00	; 0
 83c:	ba 01       	movw	r22, r20
 83e:	02 c0       	rjmp	.+4      	; 0x844 <__DATA_REGION_LENGTH__+0x44>
 840:	66 0f       	add	r22, r22
 842:	77 1f       	adc	r23, r23
 844:	2a 95       	dec	r18
 846:	e2 f7       	brpl	.-8      	; 0x840 <__DATA_REGION_LENGTH__+0x40>
 848:	9b 01       	movw	r18, r22
 84a:	29 2b       	or	r18, r25
 84c:	21 bb       	out	0x11, r18	; 17
 84e:	0d c0       	rjmp	.+26     	; 0x86a <__stack+0xb>
 850:	91 b3       	in	r25, 0x11	; 17
 852:	41 e0       	ldi	r20, 0x01	; 1
 854:	50 e0       	ldi	r21, 0x00	; 0
 856:	ba 01       	movw	r22, r20
 858:	02 c0       	rjmp	.+4      	; 0x85e <__DATA_REGION_LENGTH__+0x5e>
 85a:	66 0f       	add	r22, r22
 85c:	77 1f       	adc	r23, r23
 85e:	2a 95       	dec	r18
 860:	e2 f7       	brpl	.-8      	; 0x85a <__DATA_REGION_LENGTH__+0x5a>
 862:	9b 01       	movw	r18, r22
 864:	20 95       	com	r18
 866:	29 23       	and	r18, r25
 868:	21 bb       	out	0x11, r18	; 17
 86a:	8f 5f       	subi	r24, 0xFF	; 255
 86c:	80 32       	cpi	r24, 0x20	; 32
 86e:	08 f4       	brcc	.+2      	; 0x872 <__stack+0x13>
 870:	5d cf       	rjmp	.-326    	; 0x72c <MDIO_vidInit+0x4>
 872:	08 95       	ret

00000874 <UART_init>:
	 * UCSZ2 = 0
	 * PXB8 NOT USED FOR 8-BIT DATA MODE 
	 * TXB8 NOT USED FOR 8-BIT DATA MODE
	*********************************************/
	// Disable Rx complete interrupt
	CLEAR_BIT(UCSRB,RXCIE);
 874:	8a b1       	in	r24, 0x0a	; 10
 876:	8f 77       	andi	r24, 0x7F	; 127
 878:	8a b9       	out	0x0a, r24	; 10
	
	// Disable Tx complete interrupt
	CLEAR_BIT(UCSRB,TXCIE);
 87a:	8a b1       	in	r24, 0x0a	; 10
 87c:	8f 7b       	andi	r24, 0xBF	; 191
 87e:	8a b9       	out	0x0a, r24	; 10
	
	// Disable UDR empty interrupt
	CLEAR_BIT(UCSRB,UDRIE);
 880:	8a b1       	in	r24, 0x0a	; 10
 882:	8f 7d       	andi	r24, 0xDF	; 223
 884:	8a b9       	out	0x0a, r24	; 10

	//Enable Tx
	SET_BIT(UCSRB,TXEN);
 886:	8a b1       	in	r24, 0x0a	; 10
 888:	88 60       	ori	r24, 0x08	; 8
 88a:	8a b9       	out	0x0a, r24	; 10
	
	//Enable Rx
	SET_BIT(UCSRB,RXEN);
 88c:	8a b1       	in	r24, 0x0a	; 10
 88e:	80 61       	ori	r24, 0x10	; 16
 890:	8a b9       	out	0x0a, r24	; 10
	//8-BIT MODE UCSZ2=0 UCSZ1=1 UCSZ0=1 
	CLEAR_BIT(UCSRB,UCSZ2);
 892:	8a b1       	in	r24, 0x0a	; 10
 894:	8b 7f       	andi	r24, 0xFB	; 251
 896:	8a b9       	out	0x0a, r24	; 10
	 * UCPOL = 0
	*********************************************/ 	
	

	// writing the UCSRC
	SET_BIT(UCSRC,URSEL);
 898:	80 b5       	in	r24, 0x20	; 32
 89a:	80 68       	ori	r24, 0x80	; 128
 89c:	80 bd       	out	0x20, r24	; 32
	
	// select UART MODE = Asynchronous
	CLEAR_BIT(UCSRC,UMSEL);
 89e:	80 b5       	in	r24, 0x20	; 32
 8a0:	8f 7b       	andi	r24, 0xBF	; 191
 8a2:	80 bd       	out	0x20, r24	; 32
	
	// configure no parity
	CLEAR_BIT(UCSRC,UPM0);
 8a4:	80 b5       	in	r24, 0x20	; 32
 8a6:	8f 7e       	andi	r24, 0xEF	; 239
 8a8:	80 bd       	out	0x20, r24	; 32
	CLEAR_BIT(UCSRC,UPM1);
 8aa:	80 b5       	in	r24, 0x20	; 32
 8ac:	8f 7d       	andi	r24, 0xDF	; 223
 8ae:	80 bd       	out	0x20, r24	; 32
	
	// configure stop bits = 1
	CLEAR_BIT(UCSRC,USBS);
 8b0:	80 b5       	in	r24, 0x20	; 32
 8b2:	87 7f       	andi	r24, 0xF7	; 247
 8b4:	80 bd       	out	0x20, r24	; 32
	
	//8-BIT MODE UCSZ2=0 UCSZ1=1 UCSZ0=1
	SET_BIT(UCSRC,UCSZ0);
 8b6:	80 b5       	in	r24, 0x20	; 32
 8b8:	82 60       	ori	r24, 0x02	; 2
 8ba:	80 bd       	out	0x20, r24	; 32
	SET_BIT(UCSRC,UCSZ1);
 8bc:	80 b5       	in	r24, 0x20	; 32
 8be:	84 60       	ori	r24, 0x04	; 4
 8c0:	80 bd       	out	0x20, r24	; 32
	//CLEAR_BIT(UCSRB,UCSZ2); DONE BEFORE 
	
	// configure no polarity
	CLEAR_BIT(UCSRC,UCPOL);
 8c2:	80 b5       	in	r24, 0x20	; 32
 8c4:	8e 7f       	andi	r24, 0xFE	; 254
 8c6:	80 bd       	out	0x20, r24	; 32
	
	//NORMAL ASYNCHRONUOS USART CONTROL & STATUS REG. A | U2X BIT -> 0 
	CLEAR_BIT(UCSRA,U2X);
 8c8:	8b b1       	in	r24, 0x0b	; 11
 8ca:	8d 7f       	andi	r24, 0xFD	; 253
 8cc:	8b b9       	out	0x0b, r24	; 11
	UBRRL = Buad_PreScale;
 8ce:	87 e6       	ldi	r24, 0x67	; 103
 8d0:	89 b9       	out	0x09, r24	; 9
	UBRRH = Buad_PreScale>>8;	
 8d2:	10 bc       	out	0x20, r1	; 32
 8d4:	08 95       	ret

000008d6 <UART_TxChar>:


void UART_TxChar(u8 TxData)
{
	// Busy Wait on Data Register empty flag
	while(0 == GET_BIT(UCSRA,UDRE));
 8d6:	5d 9b       	sbis	0x0b, 5	; 11
 8d8:	fe cf       	rjmp	.-4      	; 0x8d6 <UART_TxChar>
	
	UDR = TxData;
 8da:	8c b9       	out	0x0c, r24	; 12
 8dc:	08 95       	ret

000008de <__subsf3>:
 8de:	50 58       	subi	r21, 0x80	; 128

000008e0 <__addsf3>:
 8e0:	bb 27       	eor	r27, r27
 8e2:	aa 27       	eor	r26, r26
 8e4:	0e 94 87 04 	call	0x90e	; 0x90e <__addsf3x>
 8e8:	0c 94 cb 05 	jmp	0xb96	; 0xb96 <__fp_round>
 8ec:	0e 94 bd 05 	call	0xb7a	; 0xb7a <__fp_pscA>
 8f0:	38 f0       	brcs	.+14     	; 0x900 <__addsf3+0x20>
 8f2:	0e 94 c4 05 	call	0xb88	; 0xb88 <__fp_pscB>
 8f6:	20 f0       	brcs	.+8      	; 0x900 <__addsf3+0x20>
 8f8:	39 f4       	brne	.+14     	; 0x908 <__addsf3+0x28>
 8fa:	9f 3f       	cpi	r25, 0xFF	; 255
 8fc:	19 f4       	brne	.+6      	; 0x904 <__addsf3+0x24>
 8fe:	26 f4       	brtc	.+8      	; 0x908 <__addsf3+0x28>
 900:	0c 94 ba 05 	jmp	0xb74	; 0xb74 <__fp_nan>
 904:	0e f4       	brtc	.+2      	; 0x908 <__addsf3+0x28>
 906:	e0 95       	com	r30
 908:	e7 fb       	bst	r30, 7
 90a:	0c 94 b4 05 	jmp	0xb68	; 0xb68 <__fp_inf>

0000090e <__addsf3x>:
 90e:	e9 2f       	mov	r30, r25
 910:	0e 94 dc 05 	call	0xbb8	; 0xbb8 <__fp_split3>
 914:	58 f3       	brcs	.-42     	; 0x8ec <__addsf3+0xc>
 916:	ba 17       	cp	r27, r26
 918:	62 07       	cpc	r22, r18
 91a:	73 07       	cpc	r23, r19
 91c:	84 07       	cpc	r24, r20
 91e:	95 07       	cpc	r25, r21
 920:	20 f0       	brcs	.+8      	; 0x92a <__addsf3x+0x1c>
 922:	79 f4       	brne	.+30     	; 0x942 <__addsf3x+0x34>
 924:	a6 f5       	brtc	.+104    	; 0x98e <__addsf3x+0x80>
 926:	0c 94 fe 05 	jmp	0xbfc	; 0xbfc <__fp_zero>
 92a:	0e f4       	brtc	.+2      	; 0x92e <__addsf3x+0x20>
 92c:	e0 95       	com	r30
 92e:	0b 2e       	mov	r0, r27
 930:	ba 2f       	mov	r27, r26
 932:	a0 2d       	mov	r26, r0
 934:	0b 01       	movw	r0, r22
 936:	b9 01       	movw	r22, r18
 938:	90 01       	movw	r18, r0
 93a:	0c 01       	movw	r0, r24
 93c:	ca 01       	movw	r24, r20
 93e:	a0 01       	movw	r20, r0
 940:	11 24       	eor	r1, r1
 942:	ff 27       	eor	r31, r31
 944:	59 1b       	sub	r21, r25
 946:	99 f0       	breq	.+38     	; 0x96e <__addsf3x+0x60>
 948:	59 3f       	cpi	r21, 0xF9	; 249
 94a:	50 f4       	brcc	.+20     	; 0x960 <__addsf3x+0x52>
 94c:	50 3e       	cpi	r21, 0xE0	; 224
 94e:	68 f1       	brcs	.+90     	; 0x9aa <__addsf3x+0x9c>
 950:	1a 16       	cp	r1, r26
 952:	f0 40       	sbci	r31, 0x00	; 0
 954:	a2 2f       	mov	r26, r18
 956:	23 2f       	mov	r18, r19
 958:	34 2f       	mov	r19, r20
 95a:	44 27       	eor	r20, r20
 95c:	58 5f       	subi	r21, 0xF8	; 248
 95e:	f3 cf       	rjmp	.-26     	; 0x946 <__addsf3x+0x38>
 960:	46 95       	lsr	r20
 962:	37 95       	ror	r19
 964:	27 95       	ror	r18
 966:	a7 95       	ror	r26
 968:	f0 40       	sbci	r31, 0x00	; 0
 96a:	53 95       	inc	r21
 96c:	c9 f7       	brne	.-14     	; 0x960 <__addsf3x+0x52>
 96e:	7e f4       	brtc	.+30     	; 0x98e <__addsf3x+0x80>
 970:	1f 16       	cp	r1, r31
 972:	ba 0b       	sbc	r27, r26
 974:	62 0b       	sbc	r22, r18
 976:	73 0b       	sbc	r23, r19
 978:	84 0b       	sbc	r24, r20
 97a:	ba f0       	brmi	.+46     	; 0x9aa <__addsf3x+0x9c>
 97c:	91 50       	subi	r25, 0x01	; 1
 97e:	a1 f0       	breq	.+40     	; 0x9a8 <__addsf3x+0x9a>
 980:	ff 0f       	add	r31, r31
 982:	bb 1f       	adc	r27, r27
 984:	66 1f       	adc	r22, r22
 986:	77 1f       	adc	r23, r23
 988:	88 1f       	adc	r24, r24
 98a:	c2 f7       	brpl	.-16     	; 0x97c <__addsf3x+0x6e>
 98c:	0e c0       	rjmp	.+28     	; 0x9aa <__addsf3x+0x9c>
 98e:	ba 0f       	add	r27, r26
 990:	62 1f       	adc	r22, r18
 992:	73 1f       	adc	r23, r19
 994:	84 1f       	adc	r24, r20
 996:	48 f4       	brcc	.+18     	; 0x9aa <__addsf3x+0x9c>
 998:	87 95       	ror	r24
 99a:	77 95       	ror	r23
 99c:	67 95       	ror	r22
 99e:	b7 95       	ror	r27
 9a0:	f7 95       	ror	r31
 9a2:	9e 3f       	cpi	r25, 0xFE	; 254
 9a4:	08 f0       	brcs	.+2      	; 0x9a8 <__addsf3x+0x9a>
 9a6:	b0 cf       	rjmp	.-160    	; 0x908 <__addsf3+0x28>
 9a8:	93 95       	inc	r25
 9aa:	88 0f       	add	r24, r24
 9ac:	08 f0       	brcs	.+2      	; 0x9b0 <__addsf3x+0xa2>
 9ae:	99 27       	eor	r25, r25
 9b0:	ee 0f       	add	r30, r30
 9b2:	97 95       	ror	r25
 9b4:	87 95       	ror	r24
 9b6:	08 95       	ret

000009b8 <__cmpsf2>:
 9b8:	0e 94 90 05 	call	0xb20	; 0xb20 <__fp_cmp>
 9bc:	08 f4       	brcc	.+2      	; 0x9c0 <__cmpsf2+0x8>
 9be:	81 e0       	ldi	r24, 0x01	; 1
 9c0:	08 95       	ret

000009c2 <__divsf3>:
 9c2:	0e 94 f5 04 	call	0x9ea	; 0x9ea <__divsf3x>
 9c6:	0c 94 cb 05 	jmp	0xb96	; 0xb96 <__fp_round>
 9ca:	0e 94 c4 05 	call	0xb88	; 0xb88 <__fp_pscB>
 9ce:	58 f0       	brcs	.+22     	; 0x9e6 <__divsf3+0x24>
 9d0:	0e 94 bd 05 	call	0xb7a	; 0xb7a <__fp_pscA>
 9d4:	40 f0       	brcs	.+16     	; 0x9e6 <__divsf3+0x24>
 9d6:	29 f4       	brne	.+10     	; 0x9e2 <__divsf3+0x20>
 9d8:	5f 3f       	cpi	r21, 0xFF	; 255
 9da:	29 f0       	breq	.+10     	; 0x9e6 <__divsf3+0x24>
 9dc:	0c 94 b4 05 	jmp	0xb68	; 0xb68 <__fp_inf>
 9e0:	51 11       	cpse	r21, r1
 9e2:	0c 94 ff 05 	jmp	0xbfe	; 0xbfe <__fp_szero>
 9e6:	0c 94 ba 05 	jmp	0xb74	; 0xb74 <__fp_nan>

000009ea <__divsf3x>:
 9ea:	0e 94 dc 05 	call	0xbb8	; 0xbb8 <__fp_split3>
 9ee:	68 f3       	brcs	.-38     	; 0x9ca <__divsf3+0x8>

000009f0 <__divsf3_pse>:
 9f0:	99 23       	and	r25, r25
 9f2:	b1 f3       	breq	.-20     	; 0x9e0 <__divsf3+0x1e>
 9f4:	55 23       	and	r21, r21
 9f6:	91 f3       	breq	.-28     	; 0x9dc <__divsf3+0x1a>
 9f8:	95 1b       	sub	r25, r21
 9fa:	55 0b       	sbc	r21, r21
 9fc:	bb 27       	eor	r27, r27
 9fe:	aa 27       	eor	r26, r26
 a00:	62 17       	cp	r22, r18
 a02:	73 07       	cpc	r23, r19
 a04:	84 07       	cpc	r24, r20
 a06:	38 f0       	brcs	.+14     	; 0xa16 <__divsf3_pse+0x26>
 a08:	9f 5f       	subi	r25, 0xFF	; 255
 a0a:	5f 4f       	sbci	r21, 0xFF	; 255
 a0c:	22 0f       	add	r18, r18
 a0e:	33 1f       	adc	r19, r19
 a10:	44 1f       	adc	r20, r20
 a12:	aa 1f       	adc	r26, r26
 a14:	a9 f3       	breq	.-22     	; 0xa00 <__divsf3_pse+0x10>
 a16:	35 d0       	rcall	.+106    	; 0xa82 <__divsf3_pse+0x92>
 a18:	0e 2e       	mov	r0, r30
 a1a:	3a f0       	brmi	.+14     	; 0xa2a <__divsf3_pse+0x3a>
 a1c:	e0 e8       	ldi	r30, 0x80	; 128
 a1e:	32 d0       	rcall	.+100    	; 0xa84 <__divsf3_pse+0x94>
 a20:	91 50       	subi	r25, 0x01	; 1
 a22:	50 40       	sbci	r21, 0x00	; 0
 a24:	e6 95       	lsr	r30
 a26:	00 1c       	adc	r0, r0
 a28:	ca f7       	brpl	.-14     	; 0xa1c <__divsf3_pse+0x2c>
 a2a:	2b d0       	rcall	.+86     	; 0xa82 <__divsf3_pse+0x92>
 a2c:	fe 2f       	mov	r31, r30
 a2e:	29 d0       	rcall	.+82     	; 0xa82 <__divsf3_pse+0x92>
 a30:	66 0f       	add	r22, r22
 a32:	77 1f       	adc	r23, r23
 a34:	88 1f       	adc	r24, r24
 a36:	bb 1f       	adc	r27, r27
 a38:	26 17       	cp	r18, r22
 a3a:	37 07       	cpc	r19, r23
 a3c:	48 07       	cpc	r20, r24
 a3e:	ab 07       	cpc	r26, r27
 a40:	b0 e8       	ldi	r27, 0x80	; 128
 a42:	09 f0       	breq	.+2      	; 0xa46 <__divsf3_pse+0x56>
 a44:	bb 0b       	sbc	r27, r27
 a46:	80 2d       	mov	r24, r0
 a48:	bf 01       	movw	r22, r30
 a4a:	ff 27       	eor	r31, r31
 a4c:	93 58       	subi	r25, 0x83	; 131
 a4e:	5f 4f       	sbci	r21, 0xFF	; 255
 a50:	3a f0       	brmi	.+14     	; 0xa60 <__divsf3_pse+0x70>
 a52:	9e 3f       	cpi	r25, 0xFE	; 254
 a54:	51 05       	cpc	r21, r1
 a56:	78 f0       	brcs	.+30     	; 0xa76 <__divsf3_pse+0x86>
 a58:	0c 94 b4 05 	jmp	0xb68	; 0xb68 <__fp_inf>
 a5c:	0c 94 ff 05 	jmp	0xbfe	; 0xbfe <__fp_szero>
 a60:	5f 3f       	cpi	r21, 0xFF	; 255
 a62:	e4 f3       	brlt	.-8      	; 0xa5c <__divsf3_pse+0x6c>
 a64:	98 3e       	cpi	r25, 0xE8	; 232
 a66:	d4 f3       	brlt	.-12     	; 0xa5c <__divsf3_pse+0x6c>
 a68:	86 95       	lsr	r24
 a6a:	77 95       	ror	r23
 a6c:	67 95       	ror	r22
 a6e:	b7 95       	ror	r27
 a70:	f7 95       	ror	r31
 a72:	9f 5f       	subi	r25, 0xFF	; 255
 a74:	c9 f7       	brne	.-14     	; 0xa68 <__divsf3_pse+0x78>
 a76:	88 0f       	add	r24, r24
 a78:	91 1d       	adc	r25, r1
 a7a:	96 95       	lsr	r25
 a7c:	87 95       	ror	r24
 a7e:	97 f9       	bld	r25, 7
 a80:	08 95       	ret
 a82:	e1 e0       	ldi	r30, 0x01	; 1
 a84:	66 0f       	add	r22, r22
 a86:	77 1f       	adc	r23, r23
 a88:	88 1f       	adc	r24, r24
 a8a:	bb 1f       	adc	r27, r27
 a8c:	62 17       	cp	r22, r18
 a8e:	73 07       	cpc	r23, r19
 a90:	84 07       	cpc	r24, r20
 a92:	ba 07       	cpc	r27, r26
 a94:	20 f0       	brcs	.+8      	; 0xa9e <__divsf3_pse+0xae>
 a96:	62 1b       	sub	r22, r18
 a98:	73 0b       	sbc	r23, r19
 a9a:	84 0b       	sbc	r24, r20
 a9c:	ba 0b       	sbc	r27, r26
 a9e:	ee 1f       	adc	r30, r30
 aa0:	88 f7       	brcc	.-30     	; 0xa84 <__divsf3_pse+0x94>
 aa2:	e0 95       	com	r30
 aa4:	08 95       	ret

00000aa6 <__floatunsisf>:
 aa6:	e8 94       	clt
 aa8:	09 c0       	rjmp	.+18     	; 0xabc <__floatsisf+0x12>

00000aaa <__floatsisf>:
 aaa:	97 fb       	bst	r25, 7
 aac:	3e f4       	brtc	.+14     	; 0xabc <__floatsisf+0x12>
 aae:	90 95       	com	r25
 ab0:	80 95       	com	r24
 ab2:	70 95       	com	r23
 ab4:	61 95       	neg	r22
 ab6:	7f 4f       	sbci	r23, 0xFF	; 255
 ab8:	8f 4f       	sbci	r24, 0xFF	; 255
 aba:	9f 4f       	sbci	r25, 0xFF	; 255
 abc:	99 23       	and	r25, r25
 abe:	a9 f0       	breq	.+42     	; 0xaea <__floatsisf+0x40>
 ac0:	f9 2f       	mov	r31, r25
 ac2:	96 e9       	ldi	r25, 0x96	; 150
 ac4:	bb 27       	eor	r27, r27
 ac6:	93 95       	inc	r25
 ac8:	f6 95       	lsr	r31
 aca:	87 95       	ror	r24
 acc:	77 95       	ror	r23
 ace:	67 95       	ror	r22
 ad0:	b7 95       	ror	r27
 ad2:	f1 11       	cpse	r31, r1
 ad4:	f8 cf       	rjmp	.-16     	; 0xac6 <__floatsisf+0x1c>
 ad6:	fa f4       	brpl	.+62     	; 0xb16 <__floatsisf+0x6c>
 ad8:	bb 0f       	add	r27, r27
 ada:	11 f4       	brne	.+4      	; 0xae0 <__floatsisf+0x36>
 adc:	60 ff       	sbrs	r22, 0
 ade:	1b c0       	rjmp	.+54     	; 0xb16 <__floatsisf+0x6c>
 ae0:	6f 5f       	subi	r22, 0xFF	; 255
 ae2:	7f 4f       	sbci	r23, 0xFF	; 255
 ae4:	8f 4f       	sbci	r24, 0xFF	; 255
 ae6:	9f 4f       	sbci	r25, 0xFF	; 255
 ae8:	16 c0       	rjmp	.+44     	; 0xb16 <__floatsisf+0x6c>
 aea:	88 23       	and	r24, r24
 aec:	11 f0       	breq	.+4      	; 0xaf2 <__floatsisf+0x48>
 aee:	96 e9       	ldi	r25, 0x96	; 150
 af0:	11 c0       	rjmp	.+34     	; 0xb14 <__floatsisf+0x6a>
 af2:	77 23       	and	r23, r23
 af4:	21 f0       	breq	.+8      	; 0xafe <__floatsisf+0x54>
 af6:	9e e8       	ldi	r25, 0x8E	; 142
 af8:	87 2f       	mov	r24, r23
 afa:	76 2f       	mov	r23, r22
 afc:	05 c0       	rjmp	.+10     	; 0xb08 <__floatsisf+0x5e>
 afe:	66 23       	and	r22, r22
 b00:	71 f0       	breq	.+28     	; 0xb1e <__floatsisf+0x74>
 b02:	96 e8       	ldi	r25, 0x86	; 134
 b04:	86 2f       	mov	r24, r22
 b06:	70 e0       	ldi	r23, 0x00	; 0
 b08:	60 e0       	ldi	r22, 0x00	; 0
 b0a:	2a f0       	brmi	.+10     	; 0xb16 <__floatsisf+0x6c>
 b0c:	9a 95       	dec	r25
 b0e:	66 0f       	add	r22, r22
 b10:	77 1f       	adc	r23, r23
 b12:	88 1f       	adc	r24, r24
 b14:	da f7       	brpl	.-10     	; 0xb0c <__floatsisf+0x62>
 b16:	88 0f       	add	r24, r24
 b18:	96 95       	lsr	r25
 b1a:	87 95       	ror	r24
 b1c:	97 f9       	bld	r25, 7
 b1e:	08 95       	ret

00000b20 <__fp_cmp>:
 b20:	99 0f       	add	r25, r25
 b22:	00 08       	sbc	r0, r0
 b24:	55 0f       	add	r21, r21
 b26:	aa 0b       	sbc	r26, r26
 b28:	e0 e8       	ldi	r30, 0x80	; 128
 b2a:	fe ef       	ldi	r31, 0xFE	; 254
 b2c:	16 16       	cp	r1, r22
 b2e:	17 06       	cpc	r1, r23
 b30:	e8 07       	cpc	r30, r24
 b32:	f9 07       	cpc	r31, r25
 b34:	c0 f0       	brcs	.+48     	; 0xb66 <__fp_cmp+0x46>
 b36:	12 16       	cp	r1, r18
 b38:	13 06       	cpc	r1, r19
 b3a:	e4 07       	cpc	r30, r20
 b3c:	f5 07       	cpc	r31, r21
 b3e:	98 f0       	brcs	.+38     	; 0xb66 <__fp_cmp+0x46>
 b40:	62 1b       	sub	r22, r18
 b42:	73 0b       	sbc	r23, r19
 b44:	84 0b       	sbc	r24, r20
 b46:	95 0b       	sbc	r25, r21
 b48:	39 f4       	brne	.+14     	; 0xb58 <__fp_cmp+0x38>
 b4a:	0a 26       	eor	r0, r26
 b4c:	61 f0       	breq	.+24     	; 0xb66 <__fp_cmp+0x46>
 b4e:	23 2b       	or	r18, r19
 b50:	24 2b       	or	r18, r20
 b52:	25 2b       	or	r18, r21
 b54:	21 f4       	brne	.+8      	; 0xb5e <__fp_cmp+0x3e>
 b56:	08 95       	ret
 b58:	0a 26       	eor	r0, r26
 b5a:	09 f4       	brne	.+2      	; 0xb5e <__fp_cmp+0x3e>
 b5c:	a1 40       	sbci	r26, 0x01	; 1
 b5e:	a6 95       	lsr	r26
 b60:	8f ef       	ldi	r24, 0xFF	; 255
 b62:	81 1d       	adc	r24, r1
 b64:	81 1d       	adc	r24, r1
 b66:	08 95       	ret

00000b68 <__fp_inf>:
 b68:	97 f9       	bld	r25, 7
 b6a:	9f 67       	ori	r25, 0x7F	; 127
 b6c:	80 e8       	ldi	r24, 0x80	; 128
 b6e:	70 e0       	ldi	r23, 0x00	; 0
 b70:	60 e0       	ldi	r22, 0x00	; 0
 b72:	08 95       	ret

00000b74 <__fp_nan>:
 b74:	9f ef       	ldi	r25, 0xFF	; 255
 b76:	80 ec       	ldi	r24, 0xC0	; 192
 b78:	08 95       	ret

00000b7a <__fp_pscA>:
 b7a:	00 24       	eor	r0, r0
 b7c:	0a 94       	dec	r0
 b7e:	16 16       	cp	r1, r22
 b80:	17 06       	cpc	r1, r23
 b82:	18 06       	cpc	r1, r24
 b84:	09 06       	cpc	r0, r25
 b86:	08 95       	ret

00000b88 <__fp_pscB>:
 b88:	00 24       	eor	r0, r0
 b8a:	0a 94       	dec	r0
 b8c:	12 16       	cp	r1, r18
 b8e:	13 06       	cpc	r1, r19
 b90:	14 06       	cpc	r1, r20
 b92:	05 06       	cpc	r0, r21
 b94:	08 95       	ret

00000b96 <__fp_round>:
 b96:	09 2e       	mov	r0, r25
 b98:	03 94       	inc	r0
 b9a:	00 0c       	add	r0, r0
 b9c:	11 f4       	brne	.+4      	; 0xba2 <__fp_round+0xc>
 b9e:	88 23       	and	r24, r24
 ba0:	52 f0       	brmi	.+20     	; 0xbb6 <__fp_round+0x20>
 ba2:	bb 0f       	add	r27, r27
 ba4:	40 f4       	brcc	.+16     	; 0xbb6 <__fp_round+0x20>
 ba6:	bf 2b       	or	r27, r31
 ba8:	11 f4       	brne	.+4      	; 0xbae <__fp_round+0x18>
 baa:	60 ff       	sbrs	r22, 0
 bac:	04 c0       	rjmp	.+8      	; 0xbb6 <__fp_round+0x20>
 bae:	6f 5f       	subi	r22, 0xFF	; 255
 bb0:	7f 4f       	sbci	r23, 0xFF	; 255
 bb2:	8f 4f       	sbci	r24, 0xFF	; 255
 bb4:	9f 4f       	sbci	r25, 0xFF	; 255
 bb6:	08 95       	ret

00000bb8 <__fp_split3>:
 bb8:	57 fd       	sbrc	r21, 7
 bba:	90 58       	subi	r25, 0x80	; 128
 bbc:	44 0f       	add	r20, r20
 bbe:	55 1f       	adc	r21, r21
 bc0:	59 f0       	breq	.+22     	; 0xbd8 <__fp_splitA+0x10>
 bc2:	5f 3f       	cpi	r21, 0xFF	; 255
 bc4:	71 f0       	breq	.+28     	; 0xbe2 <__fp_splitA+0x1a>
 bc6:	47 95       	ror	r20

00000bc8 <__fp_splitA>:
 bc8:	88 0f       	add	r24, r24
 bca:	97 fb       	bst	r25, 7
 bcc:	99 1f       	adc	r25, r25
 bce:	61 f0       	breq	.+24     	; 0xbe8 <__fp_splitA+0x20>
 bd0:	9f 3f       	cpi	r25, 0xFF	; 255
 bd2:	79 f0       	breq	.+30     	; 0xbf2 <__fp_splitA+0x2a>
 bd4:	87 95       	ror	r24
 bd6:	08 95       	ret
 bd8:	12 16       	cp	r1, r18
 bda:	13 06       	cpc	r1, r19
 bdc:	14 06       	cpc	r1, r20
 bde:	55 1f       	adc	r21, r21
 be0:	f2 cf       	rjmp	.-28     	; 0xbc6 <__fp_split3+0xe>
 be2:	46 95       	lsr	r20
 be4:	f1 df       	rcall	.-30     	; 0xbc8 <__fp_splitA>
 be6:	08 c0       	rjmp	.+16     	; 0xbf8 <__fp_splitA+0x30>
 be8:	16 16       	cp	r1, r22
 bea:	17 06       	cpc	r1, r23
 bec:	18 06       	cpc	r1, r24
 bee:	99 1f       	adc	r25, r25
 bf0:	f1 cf       	rjmp	.-30     	; 0xbd4 <__fp_splitA+0xc>
 bf2:	86 95       	lsr	r24
 bf4:	71 05       	cpc	r23, r1
 bf6:	61 05       	cpc	r22, r1
 bf8:	08 94       	sec
 bfa:	08 95       	ret

00000bfc <__fp_zero>:
 bfc:	e8 94       	clt

00000bfe <__fp_szero>:
 bfe:	bb 27       	eor	r27, r27
 c00:	66 27       	eor	r22, r22
 c02:	77 27       	eor	r23, r23
 c04:	cb 01       	movw	r24, r22
 c06:	97 f9       	bld	r25, 7
 c08:	08 95       	ret

00000c0a <__gesf2>:
 c0a:	0e 94 90 05 	call	0xb20	; 0xb20 <__fp_cmp>
 c0e:	08 f4       	brcc	.+2      	; 0xc12 <__gesf2+0x8>
 c10:	8f ef       	ldi	r24, 0xFF	; 255
 c12:	08 95       	ret

00000c14 <__mulsf3>:
 c14:	0e 94 1d 06 	call	0xc3a	; 0xc3a <__mulsf3x>
 c18:	0c 94 cb 05 	jmp	0xb96	; 0xb96 <__fp_round>
 c1c:	0e 94 bd 05 	call	0xb7a	; 0xb7a <__fp_pscA>
 c20:	38 f0       	brcs	.+14     	; 0xc30 <__mulsf3+0x1c>
 c22:	0e 94 c4 05 	call	0xb88	; 0xb88 <__fp_pscB>
 c26:	20 f0       	brcs	.+8      	; 0xc30 <__mulsf3+0x1c>
 c28:	95 23       	and	r25, r21
 c2a:	11 f0       	breq	.+4      	; 0xc30 <__mulsf3+0x1c>
 c2c:	0c 94 b4 05 	jmp	0xb68	; 0xb68 <__fp_inf>
 c30:	0c 94 ba 05 	jmp	0xb74	; 0xb74 <__fp_nan>
 c34:	11 24       	eor	r1, r1
 c36:	0c 94 ff 05 	jmp	0xbfe	; 0xbfe <__fp_szero>

00000c3a <__mulsf3x>:
 c3a:	0e 94 dc 05 	call	0xbb8	; 0xbb8 <__fp_split3>
 c3e:	70 f3       	brcs	.-36     	; 0xc1c <__mulsf3+0x8>

00000c40 <__mulsf3_pse>:
 c40:	95 9f       	mul	r25, r21
 c42:	c1 f3       	breq	.-16     	; 0xc34 <__mulsf3+0x20>
 c44:	95 0f       	add	r25, r21
 c46:	50 e0       	ldi	r21, 0x00	; 0
 c48:	55 1f       	adc	r21, r21
 c4a:	62 9f       	mul	r22, r18
 c4c:	f0 01       	movw	r30, r0
 c4e:	72 9f       	mul	r23, r18
 c50:	bb 27       	eor	r27, r27
 c52:	f0 0d       	add	r31, r0
 c54:	b1 1d       	adc	r27, r1
 c56:	63 9f       	mul	r22, r19
 c58:	aa 27       	eor	r26, r26
 c5a:	f0 0d       	add	r31, r0
 c5c:	b1 1d       	adc	r27, r1
 c5e:	aa 1f       	adc	r26, r26
 c60:	64 9f       	mul	r22, r20
 c62:	66 27       	eor	r22, r22
 c64:	b0 0d       	add	r27, r0
 c66:	a1 1d       	adc	r26, r1
 c68:	66 1f       	adc	r22, r22
 c6a:	82 9f       	mul	r24, r18
 c6c:	22 27       	eor	r18, r18
 c6e:	b0 0d       	add	r27, r0
 c70:	a1 1d       	adc	r26, r1
 c72:	62 1f       	adc	r22, r18
 c74:	73 9f       	mul	r23, r19
 c76:	b0 0d       	add	r27, r0
 c78:	a1 1d       	adc	r26, r1
 c7a:	62 1f       	adc	r22, r18
 c7c:	83 9f       	mul	r24, r19
 c7e:	a0 0d       	add	r26, r0
 c80:	61 1d       	adc	r22, r1
 c82:	22 1f       	adc	r18, r18
 c84:	74 9f       	mul	r23, r20
 c86:	33 27       	eor	r19, r19
 c88:	a0 0d       	add	r26, r0
 c8a:	61 1d       	adc	r22, r1
 c8c:	23 1f       	adc	r18, r19
 c8e:	84 9f       	mul	r24, r20
 c90:	60 0d       	add	r22, r0
 c92:	21 1d       	adc	r18, r1
 c94:	82 2f       	mov	r24, r18
 c96:	76 2f       	mov	r23, r22
 c98:	6a 2f       	mov	r22, r26
 c9a:	11 24       	eor	r1, r1
 c9c:	9f 57       	subi	r25, 0x7F	; 127
 c9e:	50 40       	sbci	r21, 0x00	; 0
 ca0:	9a f0       	brmi	.+38     	; 0xcc8 <__mulsf3_pse+0x88>
 ca2:	f1 f0       	breq	.+60     	; 0xce0 <__mulsf3_pse+0xa0>
 ca4:	88 23       	and	r24, r24
 ca6:	4a f0       	brmi	.+18     	; 0xcba <__mulsf3_pse+0x7a>
 ca8:	ee 0f       	add	r30, r30
 caa:	ff 1f       	adc	r31, r31
 cac:	bb 1f       	adc	r27, r27
 cae:	66 1f       	adc	r22, r22
 cb0:	77 1f       	adc	r23, r23
 cb2:	88 1f       	adc	r24, r24
 cb4:	91 50       	subi	r25, 0x01	; 1
 cb6:	50 40       	sbci	r21, 0x00	; 0
 cb8:	a9 f7       	brne	.-22     	; 0xca4 <__mulsf3_pse+0x64>
 cba:	9e 3f       	cpi	r25, 0xFE	; 254
 cbc:	51 05       	cpc	r21, r1
 cbe:	80 f0       	brcs	.+32     	; 0xce0 <__mulsf3_pse+0xa0>
 cc0:	0c 94 b4 05 	jmp	0xb68	; 0xb68 <__fp_inf>
 cc4:	0c 94 ff 05 	jmp	0xbfe	; 0xbfe <__fp_szero>
 cc8:	5f 3f       	cpi	r21, 0xFF	; 255
 cca:	e4 f3       	brlt	.-8      	; 0xcc4 <__mulsf3_pse+0x84>
 ccc:	98 3e       	cpi	r25, 0xE8	; 232
 cce:	d4 f3       	brlt	.-12     	; 0xcc4 <__mulsf3_pse+0x84>
 cd0:	86 95       	lsr	r24
 cd2:	77 95       	ror	r23
 cd4:	67 95       	ror	r22
 cd6:	b7 95       	ror	r27
 cd8:	f7 95       	ror	r31
 cda:	e7 95       	ror	r30
 cdc:	9f 5f       	subi	r25, 0xFF	; 255
 cde:	c1 f7       	brne	.-16     	; 0xcd0 <__mulsf3_pse+0x90>
 ce0:	fe 2b       	or	r31, r30
 ce2:	88 0f       	add	r24, r24
 ce4:	91 1d       	adc	r25, r1
 ce6:	96 95       	lsr	r25
 ce8:	87 95       	ror	r24
 cea:	97 f9       	bld	r25, 7
 cec:	08 95       	ret

00000cee <__udivmodsi4>:
 cee:	a1 e2       	ldi	r26, 0x21	; 33
 cf0:	1a 2e       	mov	r1, r26
 cf2:	aa 1b       	sub	r26, r26
 cf4:	bb 1b       	sub	r27, r27
 cf6:	fd 01       	movw	r30, r26
 cf8:	0d c0       	rjmp	.+26     	; 0xd14 <__udivmodsi4_ep>

00000cfa <__udivmodsi4_loop>:
 cfa:	aa 1f       	adc	r26, r26
 cfc:	bb 1f       	adc	r27, r27
 cfe:	ee 1f       	adc	r30, r30
 d00:	ff 1f       	adc	r31, r31
 d02:	a2 17       	cp	r26, r18
 d04:	b3 07       	cpc	r27, r19
 d06:	e4 07       	cpc	r30, r20
 d08:	f5 07       	cpc	r31, r21
 d0a:	20 f0       	brcs	.+8      	; 0xd14 <__udivmodsi4_ep>
 d0c:	a2 1b       	sub	r26, r18
 d0e:	b3 0b       	sbc	r27, r19
 d10:	e4 0b       	sbc	r30, r20
 d12:	f5 0b       	sbc	r31, r21

00000d14 <__udivmodsi4_ep>:
 d14:	66 1f       	adc	r22, r22
 d16:	77 1f       	adc	r23, r23
 d18:	88 1f       	adc	r24, r24
 d1a:	99 1f       	adc	r25, r25
 d1c:	1a 94       	dec	r1
 d1e:	69 f7       	brne	.-38     	; 0xcfa <__udivmodsi4_loop>
 d20:	60 95       	com	r22
 d22:	70 95       	com	r23
 d24:	80 95       	com	r24
 d26:	90 95       	com	r25
 d28:	9b 01       	movw	r18, r22
 d2a:	ac 01       	movw	r20, r24
 d2c:	bd 01       	movw	r22, r26
 d2e:	cf 01       	movw	r24, r30
 d30:	08 95       	ret

00000d32 <__divmodsi4>:
 d32:	05 2e       	mov	r0, r21
 d34:	97 fb       	bst	r25, 7
 d36:	1e f4       	brtc	.+6      	; 0xd3e <__divmodsi4+0xc>
 d38:	00 94       	com	r0
 d3a:	0e 94 b0 06 	call	0xd60	; 0xd60 <__negsi2>
 d3e:	57 fd       	sbrc	r21, 7
 d40:	07 d0       	rcall	.+14     	; 0xd50 <__divmodsi4_neg2>
 d42:	0e 94 77 06 	call	0xcee	; 0xcee <__udivmodsi4>
 d46:	07 fc       	sbrc	r0, 7
 d48:	03 d0       	rcall	.+6      	; 0xd50 <__divmodsi4_neg2>
 d4a:	4e f4       	brtc	.+18     	; 0xd5e <__divmodsi4_exit>
 d4c:	0c 94 b0 06 	jmp	0xd60	; 0xd60 <__negsi2>

00000d50 <__divmodsi4_neg2>:
 d50:	50 95       	com	r21
 d52:	40 95       	com	r20
 d54:	30 95       	com	r19
 d56:	21 95       	neg	r18
 d58:	3f 4f       	sbci	r19, 0xFF	; 255
 d5a:	4f 4f       	sbci	r20, 0xFF	; 255
 d5c:	5f 4f       	sbci	r21, 0xFF	; 255

00000d5e <__divmodsi4_exit>:
 d5e:	08 95       	ret

00000d60 <__negsi2>:
 d60:	90 95       	com	r25
 d62:	80 95       	com	r24
 d64:	70 95       	com	r23
 d66:	61 95       	neg	r22
 d68:	7f 4f       	sbci	r23, 0xFF	; 255
 d6a:	8f 4f       	sbci	r24, 0xFF	; 255
 d6c:	9f 4f       	sbci	r25, 0xFF	; 255
 d6e:	08 95       	ret

00000d70 <_exit>:
 d70:	f8 94       	cli

00000d72 <__stop_program>:
 d72:	ff cf       	rjmp	.-2      	; 0xd72 <__stop_program>
